

Microchip MPLAB XC8 Assembler V2.41 build 20230208172133 
                                                                                               Sun Feb 18 15:46:37 2024

Microchip MPLAB XC8 C Compiler v2.41 (Free license) build 20230208172133 Og1 
     1                           	processor	18F46K20
     2                           	fnconf	rparam,??,?,0
     3                           	pagewidth 120
     4                           	opt	flic
     5                           	psect	nvCOMRAM,global,class=COMRAM,space=1,delta=1,lowdata,noexec
     6                           	psect	cinit,global,reloc=2,class=CODE,delta=1
     7                           	psect	bssCOMRAM,global,class=COMRAM,space=1,delta=1,lowdata,noexec
     8                           	psect	cstackCOMRAM,global,class=COMRAM,space=1,delta=1,lowdata,noexec
     9                           	psect	text0,global,reloc=2,class=CODE,delta=1
    10                           	psect	text1,global,reloc=2,class=CODE,delta=1
    11                           	psect	text2,global,reloc=2,class=CODE,delta=1
    12                           	psect	text3,global,reloc=2,class=CODE,delta=1
    13                           	psect	text4,global,reloc=2,class=CODE,delta=1
    14                           	psect	text5,global,reloc=2,class=CODE,delta=1
    15                           	psect	text6,global,reloc=2,class=CODE,delta=1
    16                           	psect	text7,global,reloc=2,class=CODE,delta=1
    17                           	psect	text8,global,reloc=2,class=CODE,delta=1
    18                           	psect	text9,global,reloc=2,class=CODE,delta=1
    19                           	psect	text10,global,reloc=2,class=CODE,delta=1
    20                           	psect	text11,global,reloc=2,class=CODE,delta=1
    21                           	psect	text12,global,reloc=2,class=CODE,delta=1
    22                           	psect	text13,global,reloc=2,class=CODE,delta=1
    23                           	psect	text14,global,reloc=2,class=CODE,delta=1
    24                           	psect	text15,global,reloc=2,class=CODE,delta=1
    25                           	psect	intcode,global,reloc=2,class=CODE,delta=1
    26                           	psect	text17,global,reloc=2,class=CODE,delta=1
    27                           	psect	text18,global,reloc=2,class=CODE,delta=1
    28                           	psect	text19,global,reloc=2,class=CODE,delta=1
    29                           	psect	text20,global,reloc=2,class=CODE,delta=1
    30                           	psect	text21,global,reloc=2,class=CODE,delta=1
    31                           	psect	text22,global,reloc=2,class=CODE,delta=1
    32                           	psect	text23,global,reloc=2,class=CODE,delta=1
    33                           	psect	text24,global,reloc=2,class=CODE,delta=1
    34                           	psect	text25,global,reloc=2,class=CODE,delta=1
    35                           	psect	text26,global,reloc=2,class=CODE,delta=1,inline
    36                           	psect	text27,global,reloc=2,class=CODE,delta=1,inline
    37                           	psect	text28,global,reloc=2,class=CODE,delta=1
    38                           	psect	text29,global,reloc=2,class=CODE,delta=1
    39                           	psect	text30,global,reloc=2,class=CODE,delta=1,inline
    40                           	psect	text31,global,reloc=2,class=CODE,delta=1,inline
    41                           	psect	text32,global,reloc=2,class=CODE,delta=1,inline
    42                           	psect	text33,global,reloc=2,class=CODE,delta=1,inline
    43                           	psect	text34,global,reloc=2,class=CODE,delta=1,inline
    44                           	psect	text35,global,reloc=2,class=CODE,delta=1
    45                           	psect	text36,global,reloc=2,class=CODE,delta=1
    46                           	psect	text37,global,reloc=2,class=CODE,delta=1,inline
    47                           	psect	intsave_regs,global,class=BIGRAM,space=1,delta=1,noexec
    48                           	psect	text38,global,reloc=2,class=CODE,delta=1,inline
    49                           	psect	rparam,global,class=COMRAM,space=1,delta=1,noexec
    50                           	psect	temp,global,ovrld,common,class=COMRAM,space=1,delta=1
    51                           	psect	idloc,global,abs,ovrld,class=IDLOC,space=5,delta=1,noexec
    52                           	psect	config,global,abs,ovrld,class=CONFIG,space=4,delta=1,noexec
    53   000000                     
    54                           ; Generated 09/02/2023 GMT
    55                           ; 
    56                           ; Copyright © 2023, Microchip Technology Inc. and its subsidiaries ("Microchip")
    57                           ; All rights reserved.
    58                           ; 
    59                           ; This software is developed by Microchip Technology Inc. and its subsidiaries ("Microch
      +                          ip").
    60                           ; 
    61                           ; Redistribution and use in source and binary forms, with or without modification, are
    62                           ; permitted provided that the following conditions are met:
    63                           ; 
    64                           ;     1. Redistributions of source code must retain the above copyright notice, this lis
      +                          t of
    65                           ;        conditions and the following disclaimer.
    66                           ; 
    67                           ;     2. Redistributions in binary form must reproduce the above copyright notice, this 
      +                          list
    68                           ;        of conditions and the following disclaimer in the documentation and/or other
    69                           ;        materials provided with the distribution. Publication is not required when
    70                           ;        this file is used in an embedded application.
    71                           ; 
    72                           ;     3. Microchip's name may not be used to endorse or promote products derived from th
      +                          is
    73                           ;        software without specific prior written permission.
    74                           ; 
    75                           ; THIS SOFTWARE IS PROVIDED BY MICROCHIP "AS IS" AND ANY EXPRESS OR IMPLIED WARRANTIES,
    76                           ; INCLUDING, BUT NOT LIMITED TO, THE IMPLIED WARRANTIES OF MERCHANTABILITY AND FITNESS F
      +                          OR
    77                           ; PURPOSE ARE DISCLAIMED.  IN NO EVENT SHALL MICROCHIP BE LIABLE FOR ANY DIRECT, INDIREC
      +                          T,
    78                           ; INCIDENTAL, SPECIAL, EXEMPLARY, OR CONSEQUENTIAL DAMAGES (INCLUDING BUT NOT LIMITED TO
    79                           ; PROCUREMENT OF SUBSTITUTE GOODS OR SERVICES; LOSS OF USE, DATA OR PROFITS; OR BUSINESS
    80                           ; INTERRUPTION) HOWSOEVER CAUSED AND ON ANY THEORY OF LIABILITY, WHETHER IN CONTRACT, ST
      +                          RICT
    81                           ; LIABILITY, OR TORT (INCLUDING NEGLIGENCE OR OTHERWISE) ARISING IN ANY WAY OUT OF THE U
      +                          SE OF
    82                           ; THIS SOFTWARE, EVEN IF ADVISED OF THE POSSIBILITY OF SUCH DAMAGE.
    83                           ; 
    84                           ; 
    85                           ; Code-generator required, PIC18F46K20 Definitions
    86                           ; 
    87                           ; SFR Addresses
    88   000000                     
    89 ;; Function _I2C_SlaveDefWrColInterruptHandler is unused but had its address taken
    90   000000                     
    91 ;; Function _I2C_SlaveDefBusColInterruptHandler is unused but had its address taken
    92   000000                     
    93 ;; Function _EUSART_DefaultFramingErrorHandler is unused but had its address taken
    94   000000                     
    95 ;; Function _EUSART_DefaultOverrunErrorHandler is unused but had its address taken
    96   000000                     
    97 ;; Function _EUSART_DefaultErrorHandler is unused but had its address taken
    98   000000                     _T3CON	set	4017
    99   000000                     _TMR3L	set	4018
   100   000000                     _TMR3H	set	4019
   101   000000                     _EEDATA	set	4008
   102   000000                     _EEADR	set	4009
   103   000000                     _EEADRH	set	4010
   104   000000                     _EECON2	set	4007
   105   000000                     _TXREG	set	4013
   106   000000                     _RCREG	set	4014
   107   000000                     _SPBRGH	set	4016
   108   000000                     _SPBRG	set	4015
   109   000000                     _TXSTA	set	4012
   110   000000                     _PIR1bits	set	3998
   111   000000                     _PIR2bits	set	4001
   112   000000                     _PIE2bits	set	4000
   113   000000                     _TRISD	set	3989
   114   000000                     _TRISC	set	3988
   115   000000                     _TRISB	set	3987
   116   000000                     _LATC	set	3979
   117   000000                     _LATB	set	3978
   118                           
   119                           	psect	nvCOMRAM
   120   00001B                     __pnvCOMRAM:
   121                           	callstack 0
   122   00001B                     _TMR3_InterruptHandler:
   123                           	callstack 0
   124   00001B                     	ds	2
   125   00001D                     _TMR1_InterruptHandler:
   126                           	callstack 0
   127   00001D                     	ds	2
   128   00001F                     _EUSART_ErrorHandler:
   129                           	callstack 0
   130   00001F                     	ds	2
   131   000021                     _EUSART_OverrunErrorHandler:
   132                           	callstack 0
   133   000021                     	ds	2
   134   000023                     _EUSART_FramingErrorHandler:
   135                           	callstack 0
   136   000023                     	ds	2
   137   000025                     _readed_value:
   138                           	callstack 0
   139   000025                     	ds	1
   140   000000                     _TMR3	set	4018
   141   000000                     _TMR1	set	4046
   142   000000                     _LATAbits	set	3977
   143   000000                     _LATBbits	set	3978
   144   000000                     _LATDbits	set	3980
   145   000000                     _LATCbits	set	3979
   146   000000                     _T3CONbits	set	4017
   147   000000                     _T1CONbits	set	4045
   148   000000                     _RCSTAbits	set	4011
   149   000000                     _TXSTAbits	set	4012
   150   000000                     _SSPCON2bits	set	4037
   151   000000                     _SSPSTATbits	set	4039
   152   000000                     _SSPCON1bits	set	4038
   153   000000                     _SSPMSK	set	3959
   154   000000                     _WPUB	set	3964
   155   000000                     _ANSEL	set	3966
   156   000000                     _LATA	set	3977
   157   000000                     _LATD	set	3980
   158   000000                     _LATE	set	3981
   159   000000                     _OSCTUNE	set	3995
   160   000000                     _OSCCON	set	4051
   161   000000                     _INTCON2bits	set	4081
   162   000000                     _PIE1bits	set	3997
   163   000000                     _IPR1bits	set	3999
   164   000000                     _IPR2bits	set	4002
   165   000000                     _RCONbits	set	4048
   166   000000                     _TRISA	set	3986
   167   000000                     _TRISE	set	3990
   168   000000                     _ANSELH	set	3967
   169   000000                     _TABLAT	set	4085
   170   000000                     _TBLPTRL	set	4086
   171   000000                     _TBLPTRH	set	4087
   172   000000                     _TBLPTRU	set	4088
   173   000000                     _INTCONbits	set	4082
   174   000000                     _EECON1bits	set	4006
   175   000000                     _RCSTA	set	4011
   176   000000                     _BAUDCON	set	4024
   177   000000                     _SSPCON2	set	4037
   178   000000                     _SSPCON1	set	4038
   179   000000                     _SSPSTAT	set	4039
   180   000000                     _T1CON	set	4045
   181   000000                     _TMR1L	set	4046
   182   000000                     _TMR1H	set	4047
   183   000000                     _SSPBUF	set	4041
   184   000000                     _SSPADD	set	4040
   185                           
   186                           ; #config settings
   187                           
   188                           	psect	cinit
   189   00095A                     __pcinit:
   190                           	callstack 0
   191   00095A                     start_initialization:
   192                           	callstack 0
   193   00095A                     __initialization:
   194                           	callstack 0
   195                           
   196                           ; Clear objects allocated to COMRAM (26 bytes)
   197   00095A  EE00  F001         	lfsr	0,__pbssCOMRAM
   198   00095E  0E1A               	movlw	26
   199   000960                     clear_0:
   200   000960  6AEE               	clrf	postinc0,c
   201   000962  06E8               	decf	wreg,f,c
   202   000964  E1FD               	bnz	clear_0
   203   000966                     end_of_initialization:
   204                           	callstack 0
   205   000966                     __end_of__initialization:
   206                           	callstack 0
   207   000966  9031               	bcf	int$flags,0,c	;clear compiler interrupt flag (level 1)
   208   000968  9231               	bcf	int$flags,1,c	;clear compiler interrupt flag (level 2)
   209   00096A  0E00               	movlw	low (__Lmediumconst shr (0+16))
   210   00096C  6EF8               	movwf	tblptru,c
   211   00096E  0100               	movlb	0
   212   000970  EF62  F000         	goto	_main	;jump to C main() function
   213                           
   214                           	psect	bssCOMRAM
   215   000001                     __pbssCOMRAM:
   216                           	callstack 0
   217   000001                     _timer3ReloadVal:
   218                           	callstack 0
   219   000001                     	ds	2
   220   000003                     _timer1ReloadVal:
   221                           	callstack 0
   222   000003                     	ds	2
   223   000005                     _I2C_SlaveWrColInterruptHandler:
   224                           	callstack 0
   225   000005                     	ds	2
   226   000007                     _I2C_SlaveBusColInterruptHandler:
   227                           	callstack 0
   228   000007                     	ds	2
   229   000009                     _I2C_SlaveAddrInterruptHandler:
   230                           	callstack 0
   231   000009                     	ds	2
   232   00000B                     _I2C_SlaveWrInterruptHandler:
   233                           	callstack 0
   234   00000B                     	ds	2
   235   00000D                     _I2C_SlaveRdInterruptHandler:
   236                           	callstack 0
   237   00000D                     	ds	2
   238   00000F                     _MSSP_InterruptHandler:
   239                           	callstack 0
   240   00000F                     	ds	2
   241   000011                     _window2_state:
   242                           	callstack 0
   243   000011                     	ds	1
   244   000012                     _window1_state:
   245                           	callstack 0
   246   000012                     	ds	1
   247   000013                     _counter:
   248                           	callstack 0
   249   000013                     	ds	1
   250   000014                     _zero_crossing:
   251                           	callstack 0
   252   000014                     	ds	1
   253   000015                     _RecTC74_A7_TempValue:
   254                           	callstack 0
   255   000015                     	ds	1
   256   000016                     _eusartRxLastError:
   257                           	callstack 0
   258   000016                     	ds	1
   259   000017                     _i2cSlaveState:
   260                           	callstack 0
   261   000017                     	ds	1
   262   000018                     _i2cSlaveAddr:
   263                           	callstack 0
   264   000018                     	ds	1
   265   000019                     _i2cRdData:
   266                           	callstack 0
   267   000019                     	ds	1
   268   00001A                     _i2cWrData:
   269                           	callstack 0
   270   00001A                     	ds	1
   271                           
   272                           	psect	cstackCOMRAM
   273   000026                     __pcstackCOMRAM:
   274                           	callstack 0
   275   000026                     I2C_SlaveSendTxData@data:
   276                           	callstack 0
   277   000026                     TMR1_WriteTimer@timerVal:
   278                           	callstack 0
   279   000026                     TMR3_WriteTimer@timerVal:
   280                           	callstack 0
   281                           
   282                           ; 2 bytes @ 0x0
   283   000026                     	ds	1
   284   000027                     ??_I2C_Isr:
   285   000027                     
   286                           ; 1 bytes @ 0x1
   287   000027                     	ds	1
   288   000028                     
   289                           ; 1 bytes @ 0x2
   290   000028                     	ds	1
   291   000029                     ??_INTERRUPT_InterruptManagerHigh:
   292                           
   293                           ; 1 bytes @ 0x3
   294   000029                     	ds	2
   295   00002B                     EUSART_SetFramingErrorHandler@interruptHandler:
   296                           	callstack 0
   297   00002B                     EUSART_SetOverrunErrorHandler@interruptHandler:
   298                           	callstack 0
   299   00002B                     EUSART_SetErrorHandler@interruptHandler:
   300                           	callstack 0
   301   00002B                     DATAEE_WriteByte@bAdd:
   302                           	callstack 0
   303   00002B                     TMR1_SetInterruptHandler@InterruptHandler:
   304                           	callstack 0
   305   00002B                     TMR3_SetInterruptHandler@InterruptHandler:
   306                           	callstack 0
   307                           
   308                           ; 2 bytes @ 0x5
   309   00002B                     	ds	2
   310   00002D                     DATAEE_WriteByte@bData:
   311                           	callstack 0
   312                           
   313                           ; 1 bytes @ 0x7
   314   00002D                     	ds	1
   315   00002E                     DATAEE_WriteByte@GIEBitValue:
   316                           	callstack 0
   317                           
   318                           ; 1 bytes @ 0x8
   319   00002E                     	ds	1
   320   00002F                     ??_main:
   321                           
   322                           ; 1 bytes @ 0x9
   323   00002F                     	ds	2
   324                           
   325 ;;
   326 ;;Main: autosize = 0, tempsize = 2, incstack = 0, save=0
   327 ;;
   328 ;; *************** function _main *****************
   329 ;; Defined at:
   330 ;;		line 19 in file "main.c"
   331 ;; Parameters:    Size  Location     Type
   332 ;;		None
   333 ;; Auto vars:     Size  Location     Type
   334 ;;		None
   335 ;; Return value:  Size  Location     Type
   336 ;;                  1    wreg      void 
   337 ;; Registers used:
   338 ;;		wreg, status,2, status,0, cstack
   339 ;; Tracked objects:
   340 ;;		On entry : 0/0
   341 ;;		On exit  : 0/0
   342 ;;		Unchanged: 0/0
   343 ;; Data sizes:     COMRAM   BANK0   BANK1   BANK2   BANK3   BANK4   BANK5   BANK6   BANK7   BANK8   BANK9  BANK10  BANK1
      +1  BANK12  BANK13  BANK14  BANK15
   344 ;;      Params:         0       0       0       0       0       0       0       0       0       0       0       0       
      +0       0       0       0       0
   345 ;;      Locals:         0       0       0       0       0       0       0       0       0       0       0       0       
      +0       0       0       0       0
   346 ;;      Temps:          2       0       0       0       0       0       0       0       0       0       0       0       
      +0       0       0       0       0
   347 ;;      Totals:         2       0       0       0       0       0       0       0       0       0       0       0       
      +0       0       0       0       0
   348 ;;Total ram usage:        2 bytes
   349 ;; Hardware stack levels required when called: 8
   350 ;; This function calls:
   351 ;;		_DATAEE_WriteByte
   352 ;;		_EUSART_Read
   353 ;;		_SYSTEM_Initialize
   354 ;; This function is called by:
   355 ;;		Startup code after reset
   356 ;; This function uses a non-reentrant model
   357 ;;
   358                           
   359                           	psect	text0
   360   0000C4                     __ptext0:
   361                           	callstack 0
   362   0000C4                     _main:
   363                           	callstack 23
   364   0000C4                     
   365                           ;main.c: 22:     SYSTEM_Initialize();
   366   0000C4  EC9E  F004         	call	_SYSTEM_Initialize	;wreg free
   367   0000C8                     
   368                           ;main.c: 24:     (INTCONbits.GIEH = 1);
   369   0000C8  8EF2               	bsf	242,7,c	;volatile
   370   0000CA                     
   371                           ;main.c: 26:     (INTCONbits.GIEL = 1);
   372   0000CA  8CF2               	bsf	242,6,c	;volatile
   373   0000CC                     
   374                           ;main.c: 28:     (INTCONbits.PEIE = 1);
   375   0000CC  8CF2               	bsf	242,6,c	;volatile
   376   0000CE                     l2346:
   377                           
   378                           ;main.c: 32:     {;main.c: 36:         readed_value = EUSART_Read();
   379   0000CE  EC3C  F004         	call	_EUSART_Read	;wreg free
   380   0000D2  6E25               	movwf	_readed_value^0,c
   381   0000D4                     
   382                           ;main.c: 37:         if(readed_value=='A'){
   383   0000D4  0E41               	movlw	65
   384   0000D6  1825               	xorwf	_readed_value^0,w,c
   385   0000D8  A4D8               	btfss	status,2,c
   386   0000DA  EF71  F000         	goto	u1011
   387   0000DE  EF73  F000         	goto	u1010
   388   0000E2                     u1011:
   389   0000E2  EF76  F000         	goto	l2350
   390   0000E6                     u1010:
   391   0000E6  828B               	bsf	139,1,c	;volatile
   392   0000E8  EF67  F000         	goto	l2346
   393   0000EC                     l2350:
   394   0000EC  0E5A               	movlw	90
   395   0000EE  1825               	xorwf	_readed_value^0,w,c
   396   0000F0  A4D8               	btfss	status,2,c
   397   0000F2  EF7D  F000         	goto	u1021
   398   0000F6  EF7F  F000         	goto	u1020
   399   0000FA                     u1021:
   400   0000FA  EF82  F000         	goto	l2352
   401   0000FE                     u1020:
   402   0000FE  928B               	bcf	139,1,c	;volatile
   403   000100  EF67  F000         	goto	l2346
   404   000104                     l2352:
   405   000104  0E4C               	movlw	76
   406   000106  1825               	xorwf	_readed_value^0,w,c
   407   000108  A4D8               	btfss	status,2,c
   408   00010A  EF89  F000         	goto	u1031
   409   00010E  EF8B  F000         	goto	u1030
   410   000112                     u1031:
   411   000112  EF96  F000         	goto	l2358
   412   000116                     u1030:
   413   000116                     
   414                           ;main.c: 45:             DATAEE_WriteByte(0x01,0x01);
   415   000116  0E00               	movlw	0
   416   000118  6E2C               	movwf	(DATAEE_WriteByte@bAdd+1)^0,c
   417   00011A  0E01               	movlw	1
   418   00011C  6E2B               	movwf	DATAEE_WriteByte@bAdd^0,c
   419   00011E  0E01               	movlw	1
   420   000120  6E2D               	movwf	DATAEE_WriteByte@bData^0,c
   421   000122  EC5E  F003         	call	_DATAEE_WriteByte	;wreg free
   422   000126  848B               	bsf	139,2,c	;volatile
   423   000128  EF67  F000         	goto	l2346
   424   00012C                     l2358:
   425   00012C  0E59               	movlw	89
   426   00012E  1825               	xorwf	_readed_value^0,w,c
   427   000130  A4D8               	btfss	status,2,c
   428   000132  EF9D  F000         	goto	u1041
   429   000136  EF9F  F000         	goto	u1040
   430   00013A                     u1041:
   431   00013A  EFAA  F000         	goto	l2364
   432   00013E                     u1040:
   433   00013E                     
   434                           ;main.c: 49:              DATAEE_WriteByte(0x01,0x00);
   435   00013E  0E00               	movlw	0
   436   000140  6E2C               	movwf	(DATAEE_WriteByte@bAdd+1)^0,c
   437   000142  0E01               	movlw	1
   438   000144  6E2B               	movwf	DATAEE_WriteByte@bAdd^0,c
   439   000146  0E00               	movlw	0
   440   000148  6E2D               	movwf	DATAEE_WriteByte@bData^0,c
   441   00014A  EC5E  F003         	call	_DATAEE_WriteByte	;wreg free
   442   00014E  948B               	bcf	139,2,c	;volatile
   443   000150  EF67  F000         	goto	l2346
   444   000154                     l2364:
   445   000154  0E52               	movlw	82
   446   000156  1825               	xorwf	_readed_value^0,w,c
   447   000158  A4D8               	btfss	status,2,c
   448   00015A  EFB1  F000         	goto	u1051
   449   00015E  EFB3  F000         	goto	u1050
   450   000162                     u1051:
   451   000162  EFBE  F000         	goto	l2370
   452   000166                     u1050:
   453   000166                     
   454                           ;main.c: 53:              DATAEE_WriteByte(0x01,0x00);
   455   000166  0E00               	movlw	0
   456   000168  6E2C               	movwf	(DATAEE_WriteByte@bAdd+1)^0,c
   457   00016A  0E01               	movlw	1
   458   00016C  6E2B               	movwf	DATAEE_WriteByte@bAdd^0,c
   459   00016E  0E00               	movlw	0
   460   000170  6E2D               	movwf	DATAEE_WriteByte@bData^0,c
   461   000172  EC5E  F003         	call	_DATAEE_WriteByte	;wreg free
   462   000176  8A8C               	bsf	140,5,c	;volatile
   463   000178  EF67  F000         	goto	l2346
   464   00017C                     l2370:
   465   00017C  0E54               	movlw	84
   466   00017E  1825               	xorwf	_readed_value^0,w,c
   467   000180  A4D8               	btfss	status,2,c
   468   000182  EFC5  F000         	goto	u1061
   469   000186  EFC7  F000         	goto	u1060
   470   00018A                     u1061:
   471   00018A  EFD2  F000         	goto	l2376
   472   00018E                     u1060:
   473   00018E                     
   474                           ;main.c: 58:              DATAEE_WriteByte(0x01,0x00);
   475   00018E  0E00               	movlw	0
   476   000190  6E2C               	movwf	(DATAEE_WriteByte@bAdd+1)^0,c
   477   000192  0E01               	movlw	1
   478   000194  6E2B               	movwf	DATAEE_WriteByte@bAdd^0,c
   479   000196  0E00               	movlw	0
   480   000198  6E2D               	movwf	DATAEE_WriteByte@bData^0,c
   481   00019A  EC5E  F003         	call	_DATAEE_WriteByte	;wreg free
   482   00019E  9A8C               	bcf	140,5,c	;volatile
   483   0001A0  EF67  F000         	goto	l2346
   484   0001A4                     l2376:
   485   0001A4  0E42               	movlw	66
   486   0001A6  1825               	xorwf	_readed_value^0,w,c
   487   0001A8  A4D8               	btfss	status,2,c
   488   0001AA  EFD9  F000         	goto	u1071
   489   0001AE  EFDB  F000         	goto	u1070
   490   0001B2                     u1071:
   491   0001B2  EF12  F002         	goto	l2416
   492   0001B6                     u1070:
   493   0001B6  8C8A               	bsf	138,6,c	;volatile
   494   0001B8  9E8A               	bcf	138,7,c	;volatile
   495   0001BA  8A8A               	bsf	138,5,c	;volatile
   496   0001BC  9A8C               	bcf	140,5,c	;volatile
   497   0001BE  948B               	bcf	139,2,c	;volatile
   498   0001C0  928B               	bcf	139,1,c	;volatile
   499   0001C2  908B               	bcf	139,0,c	;volatile
   500   0001C4  928C               	bcf	140,1,c	;volatile
   501   0001C6  908C               	bcf	140,0,c	;volatile
   502   0001C8                     
   503                           ;main.c: 73:            if(window1_state== 0 || window2_state== 0){
   504   0001C8  5012               	movf	_window1_state^0,w,c
   505   0001CA  B4D8               	btfsc	status,2,c
   506   0001CC  EFEA  F000         	goto	u1081
   507   0001D0  EFEC  F000         	goto	u1080
   508   0001D4                     u1081:
   509   0001D4  EFF4  F000         	goto	l2382
   510   0001D8                     u1080:
   511   0001D8  5011               	movf	_window2_state^0,w,c
   512   0001DA  A4D8               	btfss	status,2,c
   513   0001DC  EFF2  F000         	goto	u1091
   514   0001E0  EFF4  F000         	goto	u1090
   515   0001E4                     u1091:
   516   0001E4  EF19  F001         	goto	l749
   517   0001E8                     u1090:
   518   0001E8                     l2382:
   519                           
   520                           ;main.c: 74:                 if(window1_state== 0 ){
   521   0001E8  5012               	movf	_window1_state^0,w,c
   522   0001EA  A4D8               	btfss	status,2,c
   523   0001EC  EFFA  F000         	goto	u1101
   524   0001F0  EFFC  F000         	goto	u1100
   525   0001F4                     u1101:
   526   0001F4  EF00  F001         	goto	l2386
   527   0001F8                     u1100:
   528   0001F8  808A               	bsf	138,0,c	;volatile
   529   0001FA  928A               	bcf	138,1,c	;volatile
   530   0001FC                     
   531                           ;main.c: 77:                      window1_state=1;
   532   0001FC  0E01               	movlw	1
   533   0001FE  6E12               	movwf	_window1_state^0,c
   534   000200                     l2386:
   535                           
   536                           ;main.c: 82:                 if(window2_state== 0 ){
   537   000200  5011               	movf	_window2_state^0,w,c
   538   000202  A4D8               	btfss	status,2,c
   539   000204  EF06  F001         	goto	u1111
   540   000208  EF08  F001         	goto	u1110
   541   00020C                     u1111:
   542   00020C  EF0C  F001         	goto	l2390
   543   000210                     u1110:
   544   000210  848A               	bsf	138,2,c	;volatile
   545   000212  968A               	bcf	138,3,c	;volatile
   546   000214                     
   547                           ;main.c: 85:                      window2_state=1;
   548   000214  0E01               	movlw	1
   549   000216  6E11               	movwf	_window2_state^0,c
   550   000218                     l2390:
   551                           
   552                           ;main.c: 89:                 _delay((unsigned long)((1000)*(16000000/4000.0)));
   553   000218  0E15               	movlw	21
   554   00021A  6E30               	movwf	(??_main+1)^0,c
   555   00021C  0E4B               	movlw	75
   556   00021E  6E2F               	movwf	??_main^0,c
   557   000220  0EBE               	movlw	190
   558   000222                     u1307:
   559   000222  2EE8               	decfsz	wreg,f,c
   560   000224  D7FE               	bra	u1307
   561   000226  2E2F               	decfsz	??_main^0,f,c
   562   000228  D7FC               	bra	u1307
   563   00022A  2E30               	decfsz	(??_main+1)^0,f,c
   564   00022C  D7FA               	bra	u1307
   565   00022E  F000 F000          	nop2	
   566   000232                     l749:
   567   000232  908A               	bcf	138,0,c	;volatile
   568   000234  928A               	bcf	138,1,c	;volatile
   569   000236  948A               	bcf	138,2,c	;volatile
   570   000238  968A               	bcf	138,3,c	;volatile
   571   00023A  9A89               	bcf	137,5,c	;volatile
   572   00023C  9889               	bcf	137,4,c	;volatile
   573   00023E  BA8A               	btfsc	138,5,c	;volatile
   574   000240  EF24  F001         	goto	u1121
   575   000244  EF27  F001         	goto	u1120
   576   000248                     u1121:
   577   000248  0E01               	movlw	1
   578   00024A  EF28  F001         	goto	u1126
   579   00024E                     u1120:
   580   00024E  0E00               	movlw	0
   581   000250                     u1126:
   582   000250  0AFF               	xorlw	255
   583   000252  6E2F               	movwf	??_main^0,c
   584   000254  3A2F               	swapf	??_main^0,f,c
   585   000256  462F               	rlncf	??_main^0,f,c
   586   000258  508A               	movf	138,w,c	;volatile
   587   00025A  182F               	xorwf	??_main^0,w,c
   588   00025C  0BDF               	andlw	-33
   589   00025E  182F               	xorwf	??_main^0,w,c
   590   000260  6E8A               	movwf	138,c	;volatile
   591   000262                     
   592                           ;main.c: 101:            _delay((unsigned long)((200)*(16000000/4000.0)));
   593   000262  0E05               	movlw	5
   594   000264  6E30               	movwf	(??_main+1)^0,c
   595   000266  0E0F               	movlw	15
   596   000268  6E2F               	movwf	??_main^0,c
   597   00026A  0EF1               	movlw	241
   598   00026C                     u1317:
   599   00026C  2EE8               	decfsz	wreg,f,c
   600   00026E  D7FE               	bra	u1317
   601   000270  2E2F               	decfsz	??_main^0,f,c
   602   000272  D7FC               	bra	u1317
   603   000274  2E30               	decfsz	(??_main+1)^0,f,c
   604   000276  D7FA               	bra	u1317
   605   000278  F000               	nop	
   606   00027A  BA8A               	btfsc	138,5,c	;volatile
   607   00027C  EF42  F001         	goto	u1131
   608   000280  EF45  F001         	goto	u1130
   609   000284                     u1131:
   610   000284  0E01               	movlw	1
   611   000286  EF46  F001         	goto	u1136
   612   00028A                     u1130:
   613   00028A  0E00               	movlw	0
   614   00028C                     u1136:
   615   00028C  0AFF               	xorlw	255
   616   00028E  6E2F               	movwf	??_main^0,c
   617   000290  3A2F               	swapf	??_main^0,f,c
   618   000292  462F               	rlncf	??_main^0,f,c
   619   000294  508A               	movf	138,w,c	;volatile
   620   000296  182F               	xorwf	??_main^0,w,c
   621   000298  0BDF               	andlw	-33
   622   00029A  182F               	xorwf	??_main^0,w,c
   623   00029C  6E8A               	movwf	138,c	;volatile
   624   00029E                     
   625                           ;main.c: 103:            _delay((unsigned long)((200)*(16000000/4000.0)));
   626   00029E  0E05               	movlw	5
   627   0002A0  6E30               	movwf	(??_main+1)^0,c
   628   0002A2  0E0F               	movlw	15
   629   0002A4  6E2F               	movwf	??_main^0,c
   630   0002A6  0EF1               	movlw	241
   631   0002A8                     u1327:
   632   0002A8  2EE8               	decfsz	wreg,f,c
   633   0002AA  D7FE               	bra	u1327
   634   0002AC  2E2F               	decfsz	??_main^0,f,c
   635   0002AE  D7FC               	bra	u1327
   636   0002B0  2E30               	decfsz	(??_main+1)^0,f,c
   637   0002B2  D7FA               	bra	u1327
   638   0002B4  F000               	nop	
   639   0002B6  BA8A               	btfsc	138,5,c	;volatile
   640   0002B8  EF60  F001         	goto	u1141
   641   0002BC  EF63  F001         	goto	u1140
   642   0002C0                     u1141:
   643   0002C0  0E01               	movlw	1
   644   0002C2  EF64  F001         	goto	u1146
   645   0002C6                     u1140:
   646   0002C6  0E00               	movlw	0
   647   0002C8                     u1146:
   648   0002C8  0AFF               	xorlw	255
   649   0002CA  6E2F               	movwf	??_main^0,c
   650   0002CC  3A2F               	swapf	??_main^0,f,c
   651   0002CE  462F               	rlncf	??_main^0,f,c
   652   0002D0  508A               	movf	138,w,c	;volatile
   653   0002D2  182F               	xorwf	??_main^0,w,c
   654   0002D4  0BDF               	andlw	-33
   655   0002D6  182F               	xorwf	??_main^0,w,c
   656   0002D8  6E8A               	movwf	138,c	;volatile
   657   0002DA                     
   658                           ;main.c: 105:            _delay((unsigned long)((200)*(16000000/4000.0)));
   659   0002DA  0E05               	movlw	5
   660   0002DC  6E30               	movwf	(??_main+1)^0,c
   661   0002DE  0E0F               	movlw	15
   662   0002E0  6E2F               	movwf	??_main^0,c
   663   0002E2  0EF1               	movlw	241
   664   0002E4                     u1337:
   665   0002E4  2EE8               	decfsz	wreg,f,c
   666   0002E6  D7FE               	bra	u1337
   667   0002E8  2E2F               	decfsz	??_main^0,f,c
   668   0002EA  D7FC               	bra	u1337
   669   0002EC  2E30               	decfsz	(??_main+1)^0,f,c
   670   0002EE  D7FA               	bra	u1337
   671   0002F0  F000               	nop	
   672   0002F2  BA8A               	btfsc	138,5,c	;volatile
   673   0002F4  EF7E  F001         	goto	u1151
   674   0002F8  EF81  F001         	goto	u1150
   675   0002FC                     u1151:
   676   0002FC  0E01               	movlw	1
   677   0002FE  EF82  F001         	goto	u1156
   678   000302                     u1150:
   679   000302  0E00               	movlw	0
   680   000304                     u1156:
   681   000304  0AFF               	xorlw	255
   682   000306  6E2F               	movwf	??_main^0,c
   683   000308  3A2F               	swapf	??_main^0,f,c
   684   00030A  462F               	rlncf	??_main^0,f,c
   685   00030C  508A               	movf	138,w,c	;volatile
   686   00030E  182F               	xorwf	??_main^0,w,c
   687   000310  0BDF               	andlw	-33
   688   000312  182F               	xorwf	??_main^0,w,c
   689   000314  6E8A               	movwf	138,c	;volatile
   690   000316                     
   691                           ;main.c: 107:            _delay((unsigned long)((200)*(16000000/4000.0)));
   692   000316  0E05               	movlw	5
   693   000318  6E30               	movwf	(??_main+1)^0,c
   694   00031A  0E0F               	movlw	15
   695   00031C  6E2F               	movwf	??_main^0,c
   696   00031E  0EF1               	movlw	241
   697   000320                     u1347:
   698   000320  2EE8               	decfsz	wreg,f,c
   699   000322  D7FE               	bra	u1347
   700   000324  2E2F               	decfsz	??_main^0,f,c
   701   000326  D7FC               	bra	u1347
   702   000328  2E30               	decfsz	(??_main+1)^0,f,c
   703   00032A  D7FA               	bra	u1347
   704   00032C  F000               	nop	
   705   00032E  BA8A               	btfsc	138,5,c	;volatile
   706   000330  EF9C  F001         	goto	u1161
   707   000334  EF9F  F001         	goto	u1160
   708   000338                     u1161:
   709   000338  0E01               	movlw	1
   710   00033A  EFA0  F001         	goto	u1166
   711   00033E                     u1160:
   712   00033E  0E00               	movlw	0
   713   000340                     u1166:
   714   000340  0AFF               	xorlw	255
   715   000342  6E2F               	movwf	??_main^0,c
   716   000344  3A2F               	swapf	??_main^0,f,c
   717   000346  462F               	rlncf	??_main^0,f,c
   718   000348  508A               	movf	138,w,c	;volatile
   719   00034A  182F               	xorwf	??_main^0,w,c
   720   00034C  0BDF               	andlw	-33
   721   00034E  182F               	xorwf	??_main^0,w,c
   722   000350  6E8A               	movwf	138,c	;volatile
   723   000352                     
   724                           ;main.c: 109:            _delay((unsigned long)((200)*(16000000/4000.0)));
   725   000352  0E05               	movlw	5
   726   000354  6E30               	movwf	(??_main+1)^0,c
   727   000356  0E0F               	movlw	15
   728   000358  6E2F               	movwf	??_main^0,c
   729   00035A  0EF1               	movlw	241
   730   00035C                     u1357:
   731   00035C  2EE8               	decfsz	wreg,f,c
   732   00035E  D7FE               	bra	u1357
   733   000360  2E2F               	decfsz	??_main^0,f,c
   734   000362  D7FC               	bra	u1357
   735   000364  2E30               	decfsz	(??_main+1)^0,f,c
   736   000366  D7FA               	bra	u1357
   737   000368  F000               	nop	
   738   00036A  BA8A               	btfsc	138,5,c	;volatile
   739   00036C  EFBA  F001         	goto	u1171
   740   000370  EFBD  F001         	goto	u1170
   741   000374                     u1171:
   742   000374  0E01               	movlw	1
   743   000376  EFBE  F001         	goto	u1176
   744   00037A                     u1170:
   745   00037A  0E00               	movlw	0
   746   00037C                     u1176:
   747   00037C  0AFF               	xorlw	255
   748   00037E  6E2F               	movwf	??_main^0,c
   749   000380  3A2F               	swapf	??_main^0,f,c
   750   000382  462F               	rlncf	??_main^0,f,c
   751   000384  508A               	movf	138,w,c	;volatile
   752   000386  182F               	xorwf	??_main^0,w,c
   753   000388  0BDF               	andlw	-33
   754   00038A  182F               	xorwf	??_main^0,w,c
   755   00038C  6E8A               	movwf	138,c	;volatile
   756   00038E                     
   757                           ;main.c: 111:            _delay((unsigned long)((200)*(16000000/4000.0)));
   758   00038E  0E05               	movlw	5
   759   000390  6E30               	movwf	(??_main+1)^0,c
   760   000392  0E0F               	movlw	15
   761   000394  6E2F               	movwf	??_main^0,c
   762   000396  0EF1               	movlw	241
   763   000398                     u1367:
   764   000398  2EE8               	decfsz	wreg,f,c
   765   00039A  D7FE               	bra	u1367
   766   00039C  2E2F               	decfsz	??_main^0,f,c
   767   00039E  D7FC               	bra	u1367
   768   0003A0  2E30               	decfsz	(??_main+1)^0,f,c
   769   0003A2  D7FA               	bra	u1367
   770   0003A4  F000               	nop	
   771   0003A6  BA8A               	btfsc	138,5,c	;volatile
   772   0003A8  EFD8  F001         	goto	u1181
   773   0003AC  EFDB  F001         	goto	u1180
   774   0003B0                     u1181:
   775   0003B0  0E01               	movlw	1
   776   0003B2  EFDC  F001         	goto	u1186
   777   0003B6                     u1180:
   778   0003B6  0E00               	movlw	0
   779   0003B8                     u1186:
   780   0003B8  0AFF               	xorlw	255
   781   0003BA  6E2F               	movwf	??_main^0,c
   782   0003BC  3A2F               	swapf	??_main^0,f,c
   783   0003BE  462F               	rlncf	??_main^0,f,c
   784   0003C0  508A               	movf	138,w,c	;volatile
   785   0003C2  182F               	xorwf	??_main^0,w,c
   786   0003C4  0BDF               	andlw	-33
   787   0003C6  182F               	xorwf	??_main^0,w,c
   788   0003C8  6E8A               	movwf	138,c	;volatile
   789   0003CA                     
   790                           ;main.c: 113:            _delay((unsigned long)((200)*(16000000/4000.0)));
   791   0003CA  0E05               	movlw	5
   792   0003CC  6E30               	movwf	(??_main+1)^0,c
   793   0003CE  0E0F               	movlw	15
   794   0003D0  6E2F               	movwf	??_main^0,c
   795   0003D2  0EF1               	movlw	241
   796   0003D4                     u1377:
   797   0003D4  2EE8               	decfsz	wreg,f,c
   798   0003D6  D7FE               	bra	u1377
   799   0003D8  2E2F               	decfsz	??_main^0,f,c
   800   0003DA  D7FC               	bra	u1377
   801   0003DC  2E30               	decfsz	(??_main+1)^0,f,c
   802   0003DE  D7FA               	bra	u1377
   803   0003E0  F000               	nop	
   804   0003E2  BA8A               	btfsc	138,5,c	;volatile
   805   0003E4  EFF6  F001         	goto	u1191
   806   0003E8  EFF9  F001         	goto	u1190
   807   0003EC                     u1191:
   808   0003EC  0E01               	movlw	1
   809   0003EE  EFFA  F001         	goto	u1196
   810   0003F2                     u1190:
   811   0003F2  0E00               	movlw	0
   812   0003F4                     u1196:
   813   0003F4  0AFF               	xorlw	255
   814   0003F6  6E2F               	movwf	??_main^0,c
   815   0003F8  3A2F               	swapf	??_main^0,f,c
   816   0003FA  462F               	rlncf	??_main^0,f,c
   817   0003FC  508A               	movf	138,w,c	;volatile
   818   0003FE  182F               	xorwf	??_main^0,w,c
   819   000400  0BDF               	andlw	-33
   820   000402  182F               	xorwf	??_main^0,w,c
   821   000404  6E8A               	movwf	138,c	;volatile
   822   000406                     
   823                           ;main.c: 115:            _delay((unsigned long)((200)*(16000000/4000.0)));
   824   000406  0E05               	movlw	5
   825   000408  6E30               	movwf	(??_main+1)^0,c
   826   00040A  0E0F               	movlw	15
   827   00040C  6E2F               	movwf	??_main^0,c
   828   00040E  0EF1               	movlw	241
   829   000410                     u1387:
   830   000410  2EE8               	decfsz	wreg,f,c
   831   000412  D7FE               	bra	u1387
   832   000414  2E2F               	decfsz	??_main^0,f,c
   833   000416  D7FC               	bra	u1387
   834   000418  2E30               	decfsz	(??_main+1)^0,f,c
   835   00041A  D7FA               	bra	u1387
   836   00041C  F000               	nop	
   837   00041E  8A8A               	bsf	138,5,c	;volatile
   838   000420  EF67  F000         	goto	l2346
   839   000424                     l2416:
   840   000424  0E46               	movlw	70
   841   000426  1825               	xorwf	_readed_value^0,w,c
   842   000428  A4D8               	btfss	status,2,c
   843   00042A  EF19  F002         	goto	u1201
   844   00042E  EF1B  F002         	goto	u1200
   845   000432                     u1201:
   846   000432  EF23  F002         	goto	l2418
   847   000436                     u1200:
   848   000436  908B               	bcf	139,0,c	;volatile
   849   000438  928C               	bcf	140,1,c	;volatile
   850   00043A  908C               	bcf	140,0,c	;volatile
   851   00043C  9C8A               	bcf	138,6,c	;volatile
   852   00043E  9E8A               	bcf	138,7,c	;volatile
   853   000440  9A8A               	bcf	138,5,c	;volatile
   854   000442  EF67  F000         	goto	l2346
   855   000446                     l2418:
   856   000446  0E47               	movlw	71
   857   000448  1825               	xorwf	_readed_value^0,w,c
   858   00044A  A4D8               	btfss	status,2,c
   859   00044C  EF2A  F002         	goto	u1211
   860   000450  EF2C  F002         	goto	u1210
   861   000454                     u1211:
   862   000454  EF34  F002         	goto	l2420
   863   000458                     u1210:
   864   000458  808B               	bsf	139,0,c	;volatile
   865   00045A  928C               	bcf	140,1,c	;volatile
   866   00045C  808C               	bsf	140,0,c	;volatile
   867   00045E  9C8A               	bcf	138,6,c	;volatile
   868   000460  9E8A               	bcf	138,7,c	;volatile
   869   000462  9A8A               	bcf	138,5,c	;volatile
   870   000464  EF67  F000         	goto	l2346
   871   000468                     l2420:
   872   000468  0E51               	movlw	81
   873   00046A  1825               	xorwf	_readed_value^0,w,c
   874   00046C  A4D8               	btfss	status,2,c
   875   00046E  EF3B  F002         	goto	u1221
   876   000472  EF3D  F002         	goto	u1220
   877   000476                     u1221:
   878   000476  EF52  F002         	goto	l2430
   879   00047A                     u1220:
   880   00047A  808A               	bsf	138,0,c	;volatile
   881   00047C  928A               	bcf	138,1,c	;volatile
   882   00047E                     
   883                           ;main.c: 139:             _delay((unsigned long)((1000)*(16000000/4000.0)));
   884   00047E  0E15               	movlw	21
   885   000480  6E30               	movwf	(??_main+1)^0,c
   886   000482  0E4B               	movlw	75
   887   000484  6E2F               	movwf	??_main^0,c
   888   000486  0EBE               	movlw	190
   889   000488                     u1397:
   890   000488  2EE8               	decfsz	wreg,f,c
   891   00048A  D7FE               	bra	u1397
   892   00048C  2E2F               	decfsz	??_main^0,f,c
   893   00048E  D7FC               	bra	u1397
   894   000490  2E30               	decfsz	(??_main+1)^0,f,c
   895   000492  D7FA               	bra	u1397
   896   000494  F000 F000          	nop2	
   897   000498  908A               	bcf	138,0,c	;volatile
   898   00049A  928A               	bcf	138,1,c	;volatile
   899   00049C                     
   900                           ;main.c: 142:             window1_state= 1;
   901   00049C  0E01               	movlw	1
   902   00049E  6E12               	movwf	_window1_state^0,c
   903                           
   904                           ;main.c: 143:         }
   905   0004A0  EF67  F000         	goto	l2346
   906   0004A4                     l2430:
   907   0004A4  0E57               	movlw	87
   908   0004A6  1825               	xorwf	_readed_value^0,w,c
   909   0004A8  A4D8               	btfss	status,2,c
   910   0004AA  EF59  F002         	goto	u1231
   911   0004AE  EF5B  F002         	goto	u1230
   912   0004B2                     u1231:
   913   0004B2  EF70  F002         	goto	l2440
   914   0004B6                     u1230:
   915   0004B6  908A               	bcf	138,0,c	;volatile
   916   0004B8  828A               	bsf	138,1,c	;volatile
   917   0004BA                     
   918                           ;main.c: 147:             _delay((unsigned long)((1000)*(16000000/4000.0)));
   919   0004BA  0E15               	movlw	21
   920   0004BC  6E30               	movwf	(??_main+1)^0,c
   921   0004BE  0E4B               	movlw	75
   922   0004C0  6E2F               	movwf	??_main^0,c
   923   0004C2  0EBE               	movlw	190
   924   0004C4                     u1407:
   925   0004C4  2EE8               	decfsz	wreg,f,c
   926   0004C6  D7FE               	bra	u1407
   927   0004C8  2E2F               	decfsz	??_main^0,f,c
   928   0004CA  D7FC               	bra	u1407
   929   0004CC  2E30               	decfsz	(??_main+1)^0,f,c
   930   0004CE  D7FA               	bra	u1407
   931   0004D0  F000 F000          	nop2	
   932   0004D4  908A               	bcf	138,0,c	;volatile
   933   0004D6  928A               	bcf	138,1,c	;volatile
   934   0004D8                     
   935                           ;main.c: 150:             window1_state= 0;
   936   0004D8  0E00               	movlw	0
   937   0004DA  6E12               	movwf	_window1_state^0,c
   938                           
   939                           ;main.c: 151:         }
   940   0004DC  EF67  F000         	goto	l2346
   941   0004E0                     l2440:
   942   0004E0  0E55               	movlw	85
   943   0004E2  1825               	xorwf	_readed_value^0,w,c
   944   0004E4  A4D8               	btfss	status,2,c
   945   0004E6  EF77  F002         	goto	u1241
   946   0004EA  EF79  F002         	goto	u1240
   947   0004EE                     u1241:
   948   0004EE  EF8E  F002         	goto	l2450
   949   0004F2                     u1240:
   950   0004F2  848A               	bsf	138,2,c	;volatile
   951   0004F4  968A               	bcf	138,3,c	;volatile
   952   0004F6                     
   953                           ;main.c: 155:             _delay((unsigned long)((1000)*(16000000/4000.0)));
   954   0004F6  0E15               	movlw	21
   955   0004F8  6E30               	movwf	(??_main+1)^0,c
   956   0004FA  0E4B               	movlw	75
   957   0004FC  6E2F               	movwf	??_main^0,c
   958   0004FE  0EBE               	movlw	190
   959   000500                     u1417:
   960   000500  2EE8               	decfsz	wreg,f,c
   961   000502  D7FE               	bra	u1417
   962   000504  2E2F               	decfsz	??_main^0,f,c
   963   000506  D7FC               	bra	u1417
   964   000508  2E30               	decfsz	(??_main+1)^0,f,c
   965   00050A  D7FA               	bra	u1417
   966   00050C  F000 F000          	nop2	
   967   000510  948A               	bcf	138,2,c	;volatile
   968   000512  968A               	bcf	138,3,c	;volatile
   969   000514                     
   970                           ;main.c: 158:             window2_state= 1;
   971   000514  0E01               	movlw	1
   972   000516  6E11               	movwf	_window2_state^0,c
   973                           
   974                           ;main.c: 159:         }
   975   000518  EF67  F000         	goto	l2346
   976   00051C                     l2450:
   977   00051C  0E49               	movlw	73
   978   00051E  1825               	xorwf	_readed_value^0,w,c
   979   000520  A4D8               	btfss	status,2,c
   980   000522  EF95  F002         	goto	u1251
   981   000526  EF97  F002         	goto	u1250
   982   00052A                     u1251:
   983   00052A  EFAC  F002         	goto	l2460
   984   00052E                     u1250:
   985   00052E  948A               	bcf	138,2,c	;volatile
   986   000530  868A               	bsf	138,3,c	;volatile
   987   000532                     
   988                           ;main.c: 163:             _delay((unsigned long)((1000)*(16000000/4000.0)));
   989   000532  0E15               	movlw	21
   990   000534  6E30               	movwf	(??_main+1)^0,c
   991   000536  0E4B               	movlw	75
   992   000538  6E2F               	movwf	??_main^0,c
   993   00053A  0EBE               	movlw	190
   994   00053C                     u1427:
   995   00053C  2EE8               	decfsz	wreg,f,c
   996   00053E  D7FE               	bra	u1427
   997   000540  2E2F               	decfsz	??_main^0,f,c
   998   000542  D7FC               	bra	u1427
   999   000544  2E30               	decfsz	(??_main+1)^0,f,c
  1000   000546  D7FA               	bra	u1427
  1001   000548  F000 F000          	nop2	
  1002   00054C  948A               	bcf	138,2,c	;volatile
  1003   00054E  968A               	bcf	138,3,c	;volatile
  1004   000550                     
  1005                           ;main.c: 166:             window2_state= 0;
  1006   000550  0E00               	movlw	0
  1007   000552  6E11               	movwf	_window2_state^0,c
  1008                           
  1009                           ;main.c: 167:         }
  1010   000554  EF67  F000         	goto	l2346
  1011   000558                     l2460:
  1012   000558  0E56               	movlw	86
  1013   00055A  1825               	xorwf	_readed_value^0,w,c
  1014   00055C  A4D8               	btfss	status,2,c
  1015   00055E  EFB3  F002         	goto	u1261
  1016   000562  EFB5  F002         	goto	u1260
  1017   000566                     u1261:
  1018   000566  EFB8  F002         	goto	l2462
  1019   00056A                     u1260:
  1020   00056A  8889               	bsf	137,4,c	;volatile
  1021   00056C  EF67  F000         	goto	l2346
  1022   000570                     l2462:
  1023   000570  0E53               	movlw	83
  1024   000572  1825               	xorwf	_readed_value^0,w,c
  1025   000574  A4D8               	btfss	status,2,c
  1026   000576  EFBF  F002         	goto	u1271
  1027   00057A  EFC1  F002         	goto	u1270
  1028   00057E                     u1271:
  1029   00057E  EFC4  F002         	goto	l2464
  1030   000582                     u1270:
  1031   000582  9889               	bcf	137,4,c	;volatile
  1032   000584  EF67  F000         	goto	l2346
  1033   000588                     l2464:
  1034   000588  0E4D               	movlw	77
  1035   00058A  1825               	xorwf	_readed_value^0,w,c
  1036   00058C  A4D8               	btfss	status,2,c
  1037   00058E  EFCB  F002         	goto	u1281
  1038   000592  EFCD  F002         	goto	u1280
  1039   000596                     u1281:
  1040   000596  EFD0  F002         	goto	l2466
  1041   00059A                     u1280:
  1042   00059A  8A89               	bsf	137,5,c	;volatile
  1043   00059C  EF67  F000         	goto	l2346
  1044   0005A0                     l2466:
  1045   0005A0  0E50               	movlw	80
  1046   0005A2  1825               	xorwf	_readed_value^0,w,c
  1047   0005A4  A4D8               	btfss	status,2,c
  1048   0005A6  EFD7  F002         	goto	u1291
  1049   0005AA  EFD9  F002         	goto	u1290
  1050   0005AE                     u1291:
  1051   0005AE  EFDC  F002         	goto	l847
  1052   0005B2                     u1290:
  1053   0005B2  9A89               	bcf	137,5,c	;volatile
  1054   0005B4  EF67  F000         	goto	l2346
  1055   0005B8                     l847:
  1056   0005B8  EF67  F000         	goto	l2346
  1057   0005BC  EF60  F000         	goto	start
  1058   0005C0                     __end_of_main:
  1059                           	callstack 0
  1060                           
  1061 ;; *************** function _SYSTEM_Initialize *****************
  1062 ;; Defined at:
  1063 ;;		line 50 in file "mcc_generated_files/mcc.c"
  1064 ;; Parameters:    Size  Location     Type
  1065 ;;		None
  1066 ;; Auto vars:     Size  Location     Type
  1067 ;;		None
  1068 ;; Return value:  Size  Location     Type
  1069 ;;                  1    wreg      void 
  1070 ;; Registers used:
  1071 ;;		wreg, status,2, status,0, cstack
  1072 ;; Tracked objects:
  1073 ;;		On entry : 0/0
  1074 ;;		On exit  : 0/0
  1075 ;;		Unchanged: 0/0
  1076 ;; Data sizes:     COMRAM   BANK0   BANK1   BANK2   BANK3   BANK4   BANK5   BANK6   BANK7   BANK8   BANK9  BANK10  BANK1
      +1  BANK12  BANK13  BANK14  BANK15
  1077 ;;      Params:         0       0       0       0       0       0       0       0       0       0       0       0       
      +0       0       0       0       0
  1078 ;;      Locals:         0       0       0       0       0       0       0       0       0       0       0       0       
      +0       0       0       0       0
  1079 ;;      Temps:          0       0       0       0       0       0       0       0       0       0       0       0       
      +0       0       0       0       0
  1080 ;;      Totals:         0       0       0       0       0       0       0       0       0       0       0       0       
      +0       0       0       0       0
  1081 ;;Total ram usage:        0 bytes
  1082 ;; Hardware stack levels used: 1
  1083 ;; Hardware stack levels required when called: 7
  1084 ;; This function calls:
  1085 ;;		_EUSART_Initialize
  1086 ;;		_I2C_Initialize
  1087 ;;		_INTERRUPT_Initialize
  1088 ;;		_OSCILLATOR_Initialize
  1089 ;;		_PIN_MANAGER_Initialize
  1090 ;;		_TMR1_Initialize
  1091 ;;		_TMR3_Initialize
  1092 ;; This function is called by:
  1093 ;;		_main
  1094 ;; This function uses a non-reentrant model
  1095 ;;
  1096                           
  1097                           	psect	text1
  1098   00093C                     __ptext1:
  1099                           	callstack 0
  1100   00093C                     _SYSTEM_Initialize:
  1101                           	callstack 23
  1102   00093C                     
  1103                           ;mcc_generated_files/mcc.c: 53:     INTERRUPT_Initialize();
  1104   00093C  ECEA  F004         	call	_INTERRUPT_Initialize	;wreg free
  1105   000940                     
  1106                           ;mcc_generated_files/mcc.c: 54:     I2C_Initialize();
  1107   000940  ECE2  F004         	call	_I2C_Initialize	;wreg free
  1108   000944                     
  1109                           ;mcc_generated_files/mcc.c: 55:     PIN_MANAGER_Initialize();
  1110   000944  ECDB  F003         	call	_PIN_MANAGER_Initialize	;wreg free
  1111   000948                     
  1112                           ;mcc_generated_files/mcc.c: 56:     OSCILLATOR_Initialize();
  1113   000948  ECFA  F004         	call	_OSCILLATOR_Initialize	;wreg free
  1114   00094C                     
  1115                           ;mcc_generated_files/mcc.c: 57:     TMR3_Initialize();
  1116   00094C  EC78  F004         	call	_TMR3_Initialize	;wreg free
  1117   000950                     
  1118                           ;mcc_generated_files/mcc.c: 58:     TMR1_Initialize();
  1119   000950  EC8B  F004         	call	_TMR1_Initialize	;wreg free
  1120   000954                     
  1121                           ;mcc_generated_files/mcc.c: 59:     EUSART_Initialize();
  1122   000954  EC80  F003         	call	_EUSART_Initialize	;wreg free
  1123   000958  0012               	return		;funcret
  1124   00095A                     __end_of_SYSTEM_Initialize:
  1125                           	callstack 0
  1126                           
  1127 ;; *************** function _TMR3_Initialize *****************
  1128 ;; Defined at:
  1129 ;;		line 64 in file "mcc_generated_files/tmr3.c"
  1130 ;; Parameters:    Size  Location     Type
  1131 ;;		None
  1132 ;; Auto vars:     Size  Location     Type
  1133 ;;		None
  1134 ;; Return value:  Size  Location     Type
  1135 ;;                  1    wreg      void 
  1136 ;; Registers used:
  1137 ;;		wreg, status,2, status,0, cstack
  1138 ;; Tracked objects:
  1139 ;;		On entry : 0/0
  1140 ;;		On exit  : 0/0
  1141 ;;		Unchanged: 0/0
  1142 ;; Data sizes:     COMRAM   BANK0   BANK1   BANK2   BANK3   BANK4   BANK5   BANK6   BANK7   BANK8   BANK9  BANK10  BANK1
      +1  BANK12  BANK13  BANK14  BANK15
  1143 ;;      Params:         0       0       0       0       0       0       0       0       0       0       0       0       
      +0       0       0       0       0
  1144 ;;      Locals:         0       0       0       0       0       0       0       0       0       0       0       0       
      +0       0       0       0       0
  1145 ;;      Temps:          0       0       0       0       0       0       0       0       0       0       0       0       
      +0       0       0       0       0
  1146 ;;      Totals:         0       0       0       0       0       0       0       0       0       0       0       0       
      +0       0       0       0       0
  1147 ;;Total ram usage:        0 bytes
  1148 ;; Hardware stack levels used: 1
  1149 ;; Hardware stack levels required when called: 6
  1150 ;; This function calls:
  1151 ;;		_TMR3_SetInterruptHandler
  1152 ;; This function is called by:
  1153 ;;		_SYSTEM_Initialize
  1154 ;; This function uses a non-reentrant model
  1155 ;;
  1156                           
  1157                           	psect	text2
  1158   0008F0                     __ptext2:
  1159                           	callstack 0
  1160   0008F0                     _TMR3_Initialize:
  1161                           	callstack 23
  1162   0008F0                     
  1163                           ;mcc_generated_files/tmr3.c: 69:   TMR3H = 0xE0;
  1164   0008F0  0EE0               	movlw	224
  1165   0008F2  6EB3               	movwf	179,c	;volatile
  1166                           
  1167                           ;mcc_generated_files/tmr3.c: 72:   TMR3L = 0xC0;
  1168   0008F4  0EC0               	movlw	192
  1169   0008F6  6EB2               	movwf	178,c	;volatile
  1170   0008F8                     
  1171                           ;mcc_generated_files/tmr3.c: 75:     timer3ReloadVal=TMR3;
  1172   0008F8  CFB2 F001          	movff	4018,_timer3ReloadVal	;volatile
  1173   0008FC  CFB3 F002          	movff	4019,_timer3ReloadVal+1	;volatile
  1174   000900                     
  1175                           ;mcc_generated_files/tmr3.c: 78:     PIR2bits.TMR3IF = 0;
  1176   000900  92A1               	bcf	161,1,c	;volatile
  1177   000902                     
  1178                           ;mcc_generated_files/tmr3.c: 81:     PIE2bits.TMR3IE = 1;
  1179   000902  82A0               	bsf	160,1,c	;volatile
  1180   000904                     
  1181                           ;mcc_generated_files/tmr3.c: 84:     TMR3_SetInterruptHandler(TMR3_DefaultInterruptHandl
      +                          er);
  1182   000904  0E48               	movlw	low _TMR3_DefaultInterruptHandler
  1183   000906  6E2B               	movwf	TMR3_SetInterruptHandler@InterruptHandler^0,c
  1184   000908  0E0A               	movlw	high _TMR3_DefaultInterruptHandler
  1185   00090A  6E2C               	movwf	(TMR3_SetInterruptHandler@InterruptHandler+1)^0,c
  1186   00090C  ECF0  F004         	call	_TMR3_SetInterruptHandler	;wreg free
  1187   000910                     
  1188                           ;mcc_generated_files/tmr3.c: 87:     T3CON = 0x01;
  1189   000910  0E01               	movlw	1
  1190   000912  6EB1               	movwf	177,c	;volatile
  1191   000914  0012               	return		;funcret
  1192   000916                     __end_of_TMR3_Initialize:
  1193                           	callstack 0
  1194                           
  1195 ;; *************** function _TMR3_SetInterruptHandler *****************
  1196 ;; Defined at:
  1197 ;;		line 159 in file "mcc_generated_files/tmr3.c"
  1198 ;; Parameters:    Size  Location     Type
  1199 ;;  InterruptHan    2    5[COMRAM] PTR FTN()void 
  1200 ;;		 -> TMR3_DefaultInterruptHandler(1), 
  1201 ;; Auto vars:     Size  Location     Type
  1202 ;;		None
  1203 ;; Return value:  Size  Location     Type
  1204 ;;                  1    wreg      void 
  1205 ;; Registers used:
  1206 ;;		wreg, status,2, status,0
  1207 ;; Tracked objects:
  1208 ;;		On entry : 0/0
  1209 ;;		On exit  : 0/0
  1210 ;;		Unchanged: 0/0
  1211 ;; Data sizes:     COMRAM   BANK0   BANK1   BANK2   BANK3   BANK4   BANK5   BANK6   BANK7   BANK8   BANK9  BANK10  BANK1
      +1  BANK12  BANK13  BANK14  BANK15
  1212 ;;      Params:         2       0       0       0       0       0       0       0       0       0       0       0       
      +0       0       0       0       0
  1213 ;;      Locals:         0       0       0       0       0       0       0       0       0       0       0       0       
      +0       0       0       0       0
  1214 ;;      Temps:          0       0       0       0       0       0       0       0       0       0       0       0       
      +0       0       0       0       0
  1215 ;;      Totals:         2       0       0       0       0       0       0       0       0       0       0       0       
      +0       0       0       0       0
  1216 ;;Total ram usage:        2 bytes
  1217 ;; Hardware stack levels used: 1
  1218 ;; Hardware stack levels required when called: 5
  1219 ;; This function calls:
  1220 ;;		Nothing
  1221 ;; This function is called by:
  1222 ;;		_TMR3_Initialize
  1223 ;; This function uses a non-reentrant model
  1224 ;;
  1225                           
  1226                           	psect	text3
  1227   0009E0                     __ptext3:
  1228                           	callstack 0
  1229   0009E0                     _TMR3_SetInterruptHandler:
  1230                           	callstack 23
  1231   0009E0                     
  1232                           ;mcc_generated_files/tmr3.c: 160:     TMR3_InterruptHandler = InterruptHandler;
  1233   0009E0  C02B  F01B         	movff	TMR3_SetInterruptHandler@InterruptHandler,_TMR3_InterruptHandler
  1234   0009E4  C02C  F01C         	movff	TMR3_SetInterruptHandler@InterruptHandler+1,_TMR3_InterruptHandler+1
  1235   0009E8  0012               	return		;funcret
  1236   0009EA                     __end_of_TMR3_SetInterruptHandler:
  1237                           	callstack 0
  1238                           
  1239 ;; *************** function _TMR1_Initialize *****************
  1240 ;; Defined at:
  1241 ;;		line 64 in file "mcc_generated_files/tmr1.c"
  1242 ;; Parameters:    Size  Location     Type
  1243 ;;		None
  1244 ;; Auto vars:     Size  Location     Type
  1245 ;;		None
  1246 ;; Return value:  Size  Location     Type
  1247 ;;                  1    wreg      void 
  1248 ;; Registers used:
  1249 ;;		wreg, status,2, status,0, cstack
  1250 ;; Tracked objects:
  1251 ;;		On entry : 0/0
  1252 ;;		On exit  : 0/0
  1253 ;;		Unchanged: 0/0
  1254 ;; Data sizes:     COMRAM   BANK0   BANK1   BANK2   BANK3   BANK4   BANK5   BANK6   BANK7   BANK8   BANK9  BANK10  BANK1
      +1  BANK12  BANK13  BANK14  BANK15
  1255 ;;      Params:         0       0       0       0       0       0       0       0       0       0       0       0       
      +0       0       0       0       0
  1256 ;;      Locals:         0       0       0       0       0       0       0       0       0       0       0       0       
      +0       0       0       0       0
  1257 ;;      Temps:          0       0       0       0       0       0       0       0       0       0       0       0       
      +0       0       0       0       0
  1258 ;;      Totals:         0       0       0       0       0       0       0       0       0       0       0       0       
      +0       0       0       0       0
  1259 ;;Total ram usage:        0 bytes
  1260 ;; Hardware stack levels used: 1
  1261 ;; Hardware stack levels required when called: 6
  1262 ;; This function calls:
  1263 ;;		_TMR1_SetInterruptHandler
  1264 ;; This function is called by:
  1265 ;;		_SYSTEM_Initialize
  1266 ;; This function uses a non-reentrant model
  1267 ;;
  1268                           
  1269                           	psect	text4
  1270   000916                     __ptext4:
  1271                           	callstack 0
  1272   000916                     _TMR1_Initialize:
  1273                           	callstack 23
  1274   000916                     
  1275                           ;mcc_generated_files/tmr1.c: 69:   TMR1H = 0xE0;
  1276   000916  0EE0               	movlw	224
  1277   000918  6ECF               	movwf	207,c	;volatile
  1278                           
  1279                           ;mcc_generated_files/tmr1.c: 72:   TMR1L = 0xC0;
  1280   00091A  0EC0               	movlw	192
  1281   00091C  6ECE               	movwf	206,c	;volatile
  1282   00091E                     
  1283                           ;mcc_generated_files/tmr1.c: 75:     timer1ReloadVal=TMR1;
  1284   00091E  CFCE F003          	movff	4046,_timer1ReloadVal	;volatile
  1285   000922  CFCF F004          	movff	4047,_timer1ReloadVal+1	;volatile
  1286   000926                     
  1287                           ;mcc_generated_files/tmr1.c: 78:     PIR1bits.TMR1IF = 0;
  1288   000926  909E               	bcf	158,0,c	;volatile
  1289   000928                     
  1290                           ;mcc_generated_files/tmr1.c: 81:     PIE1bits.TMR1IE = 1;
  1291   000928  809D               	bsf	157,0,c	;volatile
  1292   00092A                     
  1293                           ;mcc_generated_files/tmr1.c: 84:     TMR1_SetInterruptHandler(TMR1_DefaultInterruptHandl
      +                          er);
  1294   00092A  0E4A               	movlw	low _TMR1_DefaultInterruptHandler
  1295   00092C  6E2B               	movwf	TMR1_SetInterruptHandler@InterruptHandler^0,c
  1296   00092E  0E0A               	movlw	high _TMR1_DefaultInterruptHandler
  1297   000930  6E2C               	movwf	(TMR1_SetInterruptHandler@InterruptHandler+1)^0,c
  1298   000932  ECF5  F004         	call	_TMR1_SetInterruptHandler	;wreg free
  1299   000936                     
  1300                           ;mcc_generated_files/tmr1.c: 87:     T1CON = 0x01;
  1301   000936  0E01               	movlw	1
  1302   000938  6ECD               	movwf	205,c	;volatile
  1303   00093A  0012               	return		;funcret
  1304   00093C                     __end_of_TMR1_Initialize:
  1305                           	callstack 0
  1306                           
  1307 ;; *************** function _TMR1_SetInterruptHandler *****************
  1308 ;; Defined at:
  1309 ;;		line 159 in file "mcc_generated_files/tmr1.c"
  1310 ;; Parameters:    Size  Location     Type
  1311 ;;  InterruptHan    2    5[COMRAM] PTR FTN()void 
  1312 ;;		 -> TMR1_DefaultInterruptHandler(1), 
  1313 ;; Auto vars:     Size  Location     Type
  1314 ;;		None
  1315 ;; Return value:  Size  Location     Type
  1316 ;;                  1    wreg      void 
  1317 ;; Registers used:
  1318 ;;		wreg, status,2, status,0
  1319 ;; Tracked objects:
  1320 ;;		On entry : 0/0
  1321 ;;		On exit  : 0/0
  1322 ;;		Unchanged: 0/0
  1323 ;; Data sizes:     COMRAM   BANK0   BANK1   BANK2   BANK3   BANK4   BANK5   BANK6   BANK7   BANK8   BANK9  BANK10  BANK1
      +1  BANK12  BANK13  BANK14  BANK15
  1324 ;;      Params:         2       0       0       0       0       0       0       0       0       0       0       0       
      +0       0       0       0       0
  1325 ;;      Locals:         0       0       0       0       0       0       0       0       0       0       0       0       
      +0       0       0       0       0
  1326 ;;      Temps:          0       0       0       0       0       0       0       0       0       0       0       0       
      +0       0       0       0       0
  1327 ;;      Totals:         2       0       0       0       0       0       0       0       0       0       0       0       
      +0       0       0       0       0
  1328 ;;Total ram usage:        2 bytes
  1329 ;; Hardware stack levels used: 1
  1330 ;; Hardware stack levels required when called: 5
  1331 ;; This function calls:
  1332 ;;		Nothing
  1333 ;; This function is called by:
  1334 ;;		_TMR1_Initialize
  1335 ;; This function uses a non-reentrant model
  1336 ;;
  1337                           
  1338                           	psect	text5
  1339   0009EA                     __ptext5:
  1340                           	callstack 0
  1341   0009EA                     _TMR1_SetInterruptHandler:
  1342                           	callstack 23
  1343   0009EA                     
  1344                           ;mcc_generated_files/tmr1.c: 160:     TMR1_InterruptHandler = InterruptHandler;
  1345   0009EA  C02B  F01D         	movff	TMR1_SetInterruptHandler@InterruptHandler,_TMR1_InterruptHandler
  1346   0009EE  C02C  F01E         	movff	TMR1_SetInterruptHandler@InterruptHandler+1,_TMR1_InterruptHandler+1
  1347   0009F2  0012               	return		;funcret
  1348   0009F4                     __end_of_TMR1_SetInterruptHandler:
  1349                           	callstack 0
  1350                           
  1351 ;; *************** function _PIN_MANAGER_Initialize *****************
  1352 ;; Defined at:
  1353 ;;		line 55 in file "mcc_generated_files/pin_manager.c"
  1354 ;; Parameters:    Size  Location     Type
  1355 ;;		None
  1356 ;; Auto vars:     Size  Location     Type
  1357 ;;		None
  1358 ;; Return value:  Size  Location     Type
  1359 ;;                  1    wreg      void 
  1360 ;; Registers used:
  1361 ;;		wreg, status,2
  1362 ;; Tracked objects:
  1363 ;;		On entry : 0/0
  1364 ;;		On exit  : 0/0
  1365 ;;		Unchanged: 0/0
  1366 ;; Data sizes:     COMRAM   BANK0   BANK1   BANK2   BANK3   BANK4   BANK5   BANK6   BANK7   BANK8   BANK9  BANK10  BANK1
      +1  BANK12  BANK13  BANK14  BANK15
  1367 ;;      Params:         0       0       0       0       0       0       0       0       0       0       0       0       
      +0       0       0       0       0
  1368 ;;      Locals:         0       0       0       0       0       0       0       0       0       0       0       0       
      +0       0       0       0       0
  1369 ;;      Temps:          0       0       0       0       0       0       0       0       0       0       0       0       
      +0       0       0       0       0
  1370 ;;      Totals:         0       0       0       0       0       0       0       0       0       0       0       0       
      +0       0       0       0       0
  1371 ;;Total ram usage:        0 bytes
  1372 ;; Hardware stack levels used: 1
  1373 ;; Hardware stack levels required when called: 5
  1374 ;; This function calls:
  1375 ;;		Nothing
  1376 ;; This function is called by:
  1377 ;;		_SYSTEM_Initialize
  1378 ;; This function uses a non-reentrant model
  1379 ;;
  1380                           
  1381                           	psect	text6
  1382   0007B6                     __ptext6:
  1383                           	callstack 0
  1384   0007B6                     _PIN_MANAGER_Initialize:
  1385                           	callstack 24
  1386   0007B6                     
  1387                           ;mcc_generated_files/pin_manager.c: 60:     LATE = 0x00;
  1388   0007B6  0E00               	movlw	0
  1389   0007B8  6E8D               	movwf	141,c	;volatile
  1390                           
  1391                           ;mcc_generated_files/pin_manager.c: 61:     LATD = 0x00;
  1392   0007BA  0E00               	movlw	0
  1393   0007BC  6E8C               	movwf	140,c	;volatile
  1394                           
  1395                           ;mcc_generated_files/pin_manager.c: 62:     LATA = 0x08;
  1396   0007BE  0E08               	movlw	8
  1397   0007C0  6E89               	movwf	137,c	;volatile
  1398                           
  1399                           ;mcc_generated_files/pin_manager.c: 63:     LATB = 0x00;
  1400   0007C2  0E00               	movlw	0
  1401   0007C4  6E8A               	movwf	138,c	;volatile
  1402                           
  1403                           ;mcc_generated_files/pin_manager.c: 64:     LATC = 0x00;
  1404   0007C6  0E00               	movlw	0
  1405   0007C8  6E8B               	movwf	139,c	;volatile
  1406                           
  1407                           ;mcc_generated_files/pin_manager.c: 69:     TRISE = 0x07;
  1408   0007CA  0E07               	movlw	7
  1409   0007CC  6E96               	movwf	150,c	;volatile
  1410                           
  1411                           ;mcc_generated_files/pin_manager.c: 70:     TRISA = 0xCF;
  1412   0007CE  0ECF               	movlw	207
  1413   0007D0  6E92               	movwf	146,c	;volatile
  1414                           
  1415                           ;mcc_generated_files/pin_manager.c: 71:     TRISB = 0x10;
  1416   0007D2  0E10               	movlw	16
  1417   0007D4  6E93               	movwf	147,c	;volatile
  1418                           
  1419                           ;mcc_generated_files/pin_manager.c: 72:     TRISC = 0xB8;
  1420   0007D6  0EB8               	movlw	184
  1421   0007D8  6E94               	movwf	148,c	;volatile
  1422                           
  1423                           ;mcc_generated_files/pin_manager.c: 73:     TRISD = 0xDC;
  1424   0007DA  0EDC               	movlw	220
  1425   0007DC  6E95               	movwf	149,c	;volatile
  1426                           
  1427                           ;mcc_generated_files/pin_manager.c: 78:     ANSEL = 0xFB;
  1428   0007DE  0EFB               	movlw	251
  1429   0007E0  6E7E               	movwf	126,c	;volatile
  1430                           
  1431                           ;mcc_generated_files/pin_manager.c: 79:     ANSELH = 0x1F;
  1432   0007E2  0E1F               	movlw	31
  1433   0007E4  6E7F               	movwf	127,c	;volatile
  1434                           
  1435                           ;mcc_generated_files/pin_manager.c: 84:     WPUB = 0x00;
  1436   0007E6  0E00               	movlw	0
  1437   0007E8  6E7C               	movwf	124,c	;volatile
  1438   0007EA                     
  1439                           ;mcc_generated_files/pin_manager.c: 85:     INTCON2bits.nRBPU = 1;
  1440   0007EA  8EF1               	bsf	241,7,c	;volatile
  1441   0007EC  0012               	return		;funcret
  1442   0007EE                     __end_of_PIN_MANAGER_Initialize:
  1443                           	callstack 0
  1444                           
  1445 ;; *************** function _OSCILLATOR_Initialize *****************
  1446 ;; Defined at:
  1447 ;;		line 62 in file "mcc_generated_files/mcc.c"
  1448 ;; Parameters:    Size  Location     Type
  1449 ;;		None
  1450 ;; Auto vars:     Size  Location     Type
  1451 ;;		None
  1452 ;; Return value:  Size  Location     Type
  1453 ;;                  1    wreg      void 
  1454 ;; Registers used:
  1455 ;;		wreg, status,2
  1456 ;; Tracked objects:
  1457 ;;		On entry : 0/0
  1458 ;;		On exit  : 0/0
  1459 ;;		Unchanged: 0/0
  1460 ;; Data sizes:     COMRAM   BANK0   BANK1   BANK2   BANK3   BANK4   BANK5   BANK6   BANK7   BANK8   BANK9  BANK10  BANK1
      +1  BANK12  BANK13  BANK14  BANK15
  1461 ;;      Params:         0       0       0       0       0       0       0       0       0       0       0       0       
      +0       0       0       0       0
  1462 ;;      Locals:         0       0       0       0       0       0       0       0       0       0       0       0       
      +0       0       0       0       0
  1463 ;;      Temps:          0       0       0       0       0       0       0       0       0       0       0       0       
      +0       0       0       0       0
  1464 ;;      Totals:         0       0       0       0       0       0       0       0       0       0       0       0       
      +0       0       0       0       0
  1465 ;;Total ram usage:        0 bytes
  1466 ;; Hardware stack levels used: 1
  1467 ;; Hardware stack levels required when called: 5
  1468 ;; This function calls:
  1469 ;;		Nothing
  1470 ;; This function is called by:
  1471 ;;		_SYSTEM_Initialize
  1472 ;; This function uses a non-reentrant model
  1473 ;;
  1474                           
  1475                           	psect	text7
  1476   0009F4                     __ptext7:
  1477                           	callstack 0
  1478   0009F4                     _OSCILLATOR_Initialize:
  1479                           	callstack 24
  1480   0009F4                     
  1481                           ;mcc_generated_files/mcc.c: 65:     OSCCON = 0x30;
  1482   0009F4  0E30               	movlw	48
  1483   0009F6  6ED3               	movwf	211,c	;volatile
  1484                           
  1485                           ;mcc_generated_files/mcc.c: 67:     OSCTUNE = 0x00;
  1486   0009F8  0E00               	movlw	0
  1487   0009FA  6E9B               	movwf	155,c	;volatile
  1488   0009FC  0012               	return		;funcret
  1489   0009FE                     __end_of_OSCILLATOR_Initialize:
  1490                           	callstack 0
  1491                           
  1492 ;; *************** function _INTERRUPT_Initialize *****************
  1493 ;; Defined at:
  1494 ;;		line 52 in file "mcc_generated_files/interrupt_manager.c"
  1495 ;; Parameters:    Size  Location     Type
  1496 ;;		None
  1497 ;; Auto vars:     Size  Location     Type
  1498 ;;		None
  1499 ;; Return value:  Size  Location     Type
  1500 ;;                  1    wreg      void 
  1501 ;; Registers used:
  1502 ;;		None
  1503 ;; Tracked objects:
  1504 ;;		On entry : 0/0
  1505 ;;		On exit  : 0/0
  1506 ;;		Unchanged: 0/0
  1507 ;; Data sizes:     COMRAM   BANK0   BANK1   BANK2   BANK3   BANK4   BANK5   BANK6   BANK7   BANK8   BANK9  BANK10  BANK1
      +1  BANK12  BANK13  BANK14  BANK15
  1508 ;;      Params:         0       0       0       0       0       0       0       0       0       0       0       0       
      +0       0       0       0       0
  1509 ;;      Locals:         0       0       0       0       0       0       0       0       0       0       0       0       
      +0       0       0       0       0
  1510 ;;      Temps:          0       0       0       0       0       0       0       0       0       0       0       0       
      +0       0       0       0       0
  1511 ;;      Totals:         0       0       0       0       0       0       0       0       0       0       0       0       
      +0       0       0       0       0
  1512 ;;Total ram usage:        0 bytes
  1513 ;; Hardware stack levels used: 1
  1514 ;; Hardware stack levels required when called: 5
  1515 ;; This function calls:
  1516 ;;		Nothing
  1517 ;; This function is called by:
  1518 ;;		_SYSTEM_Initialize
  1519 ;; This function uses a non-reentrant model
  1520 ;;
  1521                           
  1522                           	psect	text8
  1523   0009D4                     __ptext8:
  1524                           	callstack 0
  1525   0009D4                     _INTERRUPT_Initialize:
  1526                           	callstack 24
  1527   0009D4                     
  1528                           ;mcc_generated_files/interrupt_manager.c: 55:     RCONbits.IPEN = 1;
  1529   0009D4  8ED0               	bsf	208,7,c	;volatile
  1530                           
  1531                           ;mcc_generated_files/interrupt_manager.c: 60:     IPR2bits.BCLIP = 1;
  1532   0009D6  86A2               	bsf	162,3,c	;volatile
  1533                           
  1534                           ;mcc_generated_files/interrupt_manager.c: 63:     IPR1bits.SSPIP = 1;
  1535   0009D8  869F               	bsf	159,3,c	;volatile
  1536                           
  1537                           ;mcc_generated_files/interrupt_manager.c: 66:     IPR2bits.TMR3IP = 1;
  1538   0009DA  82A2               	bsf	162,1,c	;volatile
  1539                           
  1540                           ;mcc_generated_files/interrupt_manager.c: 69:     IPR1bits.TMR1IP = 1;
  1541   0009DC  809F               	bsf	159,0,c	;volatile
  1542   0009DE  0012               	return		;funcret
  1543   0009E0                     __end_of_INTERRUPT_Initialize:
  1544                           	callstack 0
  1545                           
  1546 ;; *************** function _I2C_Initialize *****************
  1547 ;; Defined at:
  1548 ;;		line 108 in file "mcc_generated_files/i2c_slave.c"
  1549 ;; Parameters:    Size  Location     Type
  1550 ;;		None
  1551 ;; Auto vars:     Size  Location     Type
  1552 ;;		None
  1553 ;; Return value:  Size  Location     Type
  1554 ;;                  1    wreg      void 
  1555 ;; Registers used:
  1556 ;;		wreg, status,2, status,0
  1557 ;; Tracked objects:
  1558 ;;		On entry : 0/0
  1559 ;;		On exit  : 0/0
  1560 ;;		Unchanged: 0/0
  1561 ;; Data sizes:     COMRAM   BANK0   BANK1   BANK2   BANK3   BANK4   BANK5   BANK6   BANK7   BANK8   BANK9  BANK10  BANK1
      +1  BANK12  BANK13  BANK14  BANK15
  1562 ;;      Params:         0       0       0       0       0       0       0       0       0       0       0       0       
      +0       0       0       0       0
  1563 ;;      Locals:         0       0       0       0       0       0       0       0       0       0       0       0       
      +0       0       0       0       0
  1564 ;;      Temps:          0       0       0       0       0       0       0       0       0       0       0       0       
      +0       0       0       0       0
  1565 ;;      Totals:         0       0       0       0       0       0       0       0       0       0       0       0       
      +0       0       0       0       0
  1566 ;;Total ram usage:        0 bytes
  1567 ;; Hardware stack levels used: 1
  1568 ;; Hardware stack levels required when called: 5
  1569 ;; This function calls:
  1570 ;;		Nothing
  1571 ;; This function is called by:
  1572 ;;		_SYSTEM_Initialize
  1573 ;;		_I2C_Enable
  1574 ;; This function uses a non-reentrant model
  1575 ;;
  1576                           
  1577                           	psect	text9
  1578   0009C4                     __ptext9:
  1579                           	callstack 0
  1580   0009C4                     _I2C_Initialize:
  1581                           	callstack 24
  1582   0009C4                     
  1583                           ;mcc_generated_files/i2c_slave.c: 110:     SSPSTAT = 0x80;
  1584   0009C4  0E80               	movlw	128
  1585   0009C6  6EC7               	movwf	199,c	;volatile
  1586   0009C8                     
  1587                           ;mcc_generated_files/i2c_slave.c: 111:     SSPCON1 |= 0x06;
  1588   0009C8  0E06               	movlw	6
  1589   0009CA  12C6               	iorwf	198,f,c	;volatile
  1590   0009CC                     
  1591                           ;mcc_generated_files/i2c_slave.c: 112:     SSPCON2 = 0x00;
  1592   0009CC  0E00               	movlw	0
  1593   0009CE  6EC5               	movwf	197,c	;volatile
  1594   0009D0                     
  1595                           ;mcc_generated_files/i2c_slave.c: 113:     SSPCON1bits.SSPEN = 0;
  1596   0009D0  9AC6               	bcf	198,5,c	;volatile
  1597   0009D2  0012               	return		;funcret
  1598   0009D4                     __end_of_I2C_Initialize:
  1599                           	callstack 0
  1600                           
  1601 ;; *************** function _EUSART_Initialize *****************
  1602 ;; Defined at:
  1603 ;;		line 66 in file "mcc_generated_files/eusart.c"
  1604 ;; Parameters:    Size  Location     Type
  1605 ;;		None
  1606 ;; Auto vars:     Size  Location     Type
  1607 ;;		None
  1608 ;; Return value:  Size  Location     Type
  1609 ;;                  1    wreg      void 
  1610 ;; Registers used:
  1611 ;;		wreg, status,2, status,0, cstack
  1612 ;; Tracked objects:
  1613 ;;		On entry : 0/0
  1614 ;;		On exit  : 0/0
  1615 ;;		Unchanged: 0/0
  1616 ;; Data sizes:     COMRAM   BANK0   BANK1   BANK2   BANK3   BANK4   BANK5   BANK6   BANK7   BANK8   BANK9  BANK10  BANK1
      +1  BANK12  BANK13  BANK14  BANK15
  1617 ;;      Params:         0       0       0       0       0       0       0       0       0       0       0       0       
      +0       0       0       0       0
  1618 ;;      Locals:         0       0       0       0       0       0       0       0       0       0       0       0       
      +0       0       0       0       0
  1619 ;;      Temps:          0       0       0       0       0       0       0       0       0       0       0       0       
      +0       0       0       0       0
  1620 ;;      Totals:         0       0       0       0       0       0       0       0       0       0       0       0       
      +0       0       0       0       0
  1621 ;;Total ram usage:        0 bytes
  1622 ;; Hardware stack levels used: 1
  1623 ;; Hardware stack levels required when called: 6
  1624 ;; This function calls:
  1625 ;;		_EUSART_SetErrorHandler
  1626 ;;		_EUSART_SetFramingErrorHandler
  1627 ;;		_EUSART_SetOverrunErrorHandler
  1628 ;; This function is called by:
  1629 ;;		_SYSTEM_Initialize
  1630 ;; This function uses a non-reentrant model
  1631 ;;
  1632                           
  1633                           	psect	text10
  1634   000700                     __ptext10:
  1635                           	callstack 0
  1636   000700                     _EUSART_Initialize:
  1637                           	callstack 23
  1638   000700                     
  1639                           ;mcc_generated_files/eusart.c: 71:     BAUDCON = 0x08;
  1640   000700  0E08               	movlw	8
  1641   000702  6EB8               	movwf	184,c	;volatile
  1642                           
  1643                           ;mcc_generated_files/eusart.c: 74:     RCSTA = 0x90;
  1644   000704  0E90               	movlw	144
  1645   000706  6EAB               	movwf	171,c	;volatile
  1646                           
  1647                           ;mcc_generated_files/eusart.c: 77:     TXSTA = 0x24;
  1648   000708  0E24               	movlw	36
  1649   00070A  6EAC               	movwf	172,c	;volatile
  1650                           
  1651                           ;mcc_generated_files/eusart.c: 80:     SPBRG = 0xA0;
  1652   00070C  0EA0               	movlw	160
  1653   00070E  6EAF               	movwf	175,c	;volatile
  1654                           
  1655                           ;mcc_generated_files/eusart.c: 83:     SPBRGH = 0x01;
  1656   000710  0E01               	movlw	1
  1657   000712  6EB0               	movwf	176,c	;volatile
  1658   000714                     
  1659                           ;mcc_generated_files/eusart.c: 86:     EUSART_SetFramingErrorHandler(EUSART_DefaultFrami
      +                          ngErrorHandler);
  1660   000714  0E00               	movlw	0
  1661   000716  6E2B               	movwf	EUSART_SetFramingErrorHandler@interruptHandler^0,c
  1662   000718  0E00               	movlw	0
  1663   00071A  6E2C               	movwf	(EUSART_SetFramingErrorHandler@interruptHandler+1)^0,c
  1664   00071C  EC04  F005         	call	_EUSART_SetFramingErrorHandler	;wreg free
  1665   000720                     
  1666                           ;mcc_generated_files/eusart.c: 87:     EUSART_SetOverrunErrorHandler(EUSART_DefaultOverr
      +                          unErrorHandler);
  1667   000720  0E00               	movlw	0
  1668   000722  6E2B               	movwf	EUSART_SetOverrunErrorHandler@interruptHandler^0,c
  1669   000724  0E00               	movlw	0
  1670   000726  6E2C               	movwf	(EUSART_SetOverrunErrorHandler@interruptHandler+1)^0,c
  1671   000728  ECFF  F004         	call	_EUSART_SetOverrunErrorHandler	;wreg free
  1672   00072C                     
  1673                           ;mcc_generated_files/eusart.c: 88:     EUSART_SetErrorHandler(EUSART_DefaultErrorHandler
      +                          );
  1674   00072C  0E00               	movlw	0
  1675   00072E  6E2B               	movwf	EUSART_SetErrorHandler@interruptHandler^0,c
  1676   000730  0E00               	movlw	0
  1677   000732  6E2C               	movwf	(EUSART_SetErrorHandler@interruptHandler+1)^0,c
  1678   000734  EC09  F005         	call	_EUSART_SetErrorHandler	;wreg free
  1679   000738                     
  1680                           ;mcc_generated_files/eusart.c: 90:     eusartRxLastError.status = 0;
  1681   000738  0E00               	movlw	0
  1682   00073A  6E16               	movwf	_eusartRxLastError^0,c	;volatile
  1683   00073C  0012               	return		;funcret
  1684   00073E                     __end_of_EUSART_Initialize:
  1685                           	callstack 0
  1686                           
  1687 ;; *************** function _EUSART_SetOverrunErrorHandler *****************
  1688 ;; Defined at:
  1689 ;;		line 161 in file "mcc_generated_files/eusart.c"
  1690 ;; Parameters:    Size  Location     Type
  1691 ;;  interruptHan    2    5[COMRAM] PTR FTN()void 
  1692 ;;		 -> EUSART_DefaultOverrunErrorHandler(1), 
  1693 ;; Auto vars:     Size  Location     Type
  1694 ;;		None
  1695 ;; Return value:  Size  Location     Type
  1696 ;;                  1    wreg      void 
  1697 ;; Registers used:
  1698 ;;		wreg, status,2, status,0
  1699 ;; Tracked objects:
  1700 ;;		On entry : 0/0
  1701 ;;		On exit  : 0/0
  1702 ;;		Unchanged: 0/0
  1703 ;; Data sizes:     COMRAM   BANK0   BANK1   BANK2   BANK3   BANK4   BANK5   BANK6   BANK7   BANK8   BANK9  BANK10  BANK1
      +1  BANK12  BANK13  BANK14  BANK15
  1704 ;;      Params:         2       0       0       0       0       0       0       0       0       0       0       0       
      +0       0       0       0       0
  1705 ;;      Locals:         0       0       0       0       0       0       0       0       0       0       0       0       
      +0       0       0       0       0
  1706 ;;      Temps:          0       0       0       0       0       0       0       0       0       0       0       0       
      +0       0       0       0       0
  1707 ;;      Totals:         2       0       0       0       0       0       0       0       0       0       0       0       
      +0       0       0       0       0
  1708 ;;Total ram usage:        2 bytes
  1709 ;; Hardware stack levels used: 1
  1710 ;; Hardware stack levels required when called: 5
  1711 ;; This function calls:
  1712 ;;		Nothing
  1713 ;; This function is called by:
  1714 ;;		_EUSART_Initialize
  1715 ;; This function uses a non-reentrant model
  1716 ;;
  1717                           
  1718                           	psect	text11
  1719   0009FE                     __ptext11:
  1720                           	callstack 0
  1721   0009FE                     _EUSART_SetOverrunErrorHandler:
  1722                           	callstack 23
  1723   0009FE                     
  1724                           ;mcc_generated_files/eusart.c: 162:     EUSART_OverrunErrorHandler = interruptHandler;
  1725   0009FE  C02B  F021         	movff	EUSART_SetOverrunErrorHandler@interruptHandler,_EUSART_OverrunErrorHandler
  1726   000A02  C02C  F022         	movff	EUSART_SetOverrunErrorHandler@interruptHandler+1,_EUSART_OverrunErrorHandler+1
  1727   000A06  0012               	return		;funcret
  1728   000A08                     __end_of_EUSART_SetOverrunErrorHandler:
  1729                           	callstack 0
  1730                           
  1731 ;; *************** function _EUSART_SetFramingErrorHandler *****************
  1732 ;; Defined at:
  1733 ;;		line 157 in file "mcc_generated_files/eusart.c"
  1734 ;; Parameters:    Size  Location     Type
  1735 ;;  interruptHan    2    5[COMRAM] PTR FTN()void 
  1736 ;;		 -> EUSART_DefaultFramingErrorHandler(1), 
  1737 ;; Auto vars:     Size  Location     Type
  1738 ;;		None
  1739 ;; Return value:  Size  Location     Type
  1740 ;;                  1    wreg      void 
  1741 ;; Registers used:
  1742 ;;		wreg, status,2, status,0
  1743 ;; Tracked objects:
  1744 ;;		On entry : 0/0
  1745 ;;		On exit  : 0/0
  1746 ;;		Unchanged: 0/0
  1747 ;; Data sizes:     COMRAM   BANK0   BANK1   BANK2   BANK3   BANK4   BANK5   BANK6   BANK7   BANK8   BANK9  BANK10  BANK1
      +1  BANK12  BANK13  BANK14  BANK15
  1748 ;;      Params:         2       0       0       0       0       0       0       0       0       0       0       0       
      +0       0       0       0       0
  1749 ;;      Locals:         0       0       0       0       0       0       0       0       0       0       0       0       
      +0       0       0       0       0
  1750 ;;      Temps:          0       0       0       0       0       0       0       0       0       0       0       0       
      +0       0       0       0       0
  1751 ;;      Totals:         2       0       0       0       0       0       0       0       0       0       0       0       
      +0       0       0       0       0
  1752 ;;Total ram usage:        2 bytes
  1753 ;; Hardware stack levels used: 1
  1754 ;; Hardware stack levels required when called: 5
  1755 ;; This function calls:
  1756 ;;		Nothing
  1757 ;; This function is called by:
  1758 ;;		_EUSART_Initialize
  1759 ;; This function uses a non-reentrant model
  1760 ;;
  1761                           
  1762                           	psect	text12
  1763   000A08                     __ptext12:
  1764                           	callstack 0
  1765   000A08                     _EUSART_SetFramingErrorHandler:
  1766                           	callstack 23
  1767   000A08                     
  1768                           ;mcc_generated_files/eusart.c: 158:     EUSART_FramingErrorHandler = interruptHandler;
  1769   000A08  C02B  F023         	movff	EUSART_SetFramingErrorHandler@interruptHandler,_EUSART_FramingErrorHandler
  1770   000A0C  C02C  F024         	movff	EUSART_SetFramingErrorHandler@interruptHandler+1,_EUSART_FramingErrorHandler+1
  1771   000A10  0012               	return		;funcret
  1772   000A12                     __end_of_EUSART_SetFramingErrorHandler:
  1773                           	callstack 0
  1774                           
  1775 ;; *************** function _EUSART_SetErrorHandler *****************
  1776 ;; Defined at:
  1777 ;;		line 165 in file "mcc_generated_files/eusart.c"
  1778 ;; Parameters:    Size  Location     Type
  1779 ;;  interruptHan    2    5[COMRAM] PTR FTN()void 
  1780 ;;		 -> EUSART_DefaultErrorHandler(1), 
  1781 ;; Auto vars:     Size  Location     Type
  1782 ;;		None
  1783 ;; Return value:  Size  Location     Type
  1784 ;;                  1    wreg      void 
  1785 ;; Registers used:
  1786 ;;		wreg, status,2, status,0
  1787 ;; Tracked objects:
  1788 ;;		On entry : 0/0
  1789 ;;		On exit  : 0/0
  1790 ;;		Unchanged: 0/0
  1791 ;; Data sizes:     COMRAM   BANK0   BANK1   BANK2   BANK3   BANK4   BANK5   BANK6   BANK7   BANK8   BANK9  BANK10  BANK1
      +1  BANK12  BANK13  BANK14  BANK15
  1792 ;;      Params:         2       0       0       0       0       0       0       0       0       0       0       0       
      +0       0       0       0       0
  1793 ;;      Locals:         0       0       0       0       0       0       0       0       0       0       0       0       
      +0       0       0       0       0
  1794 ;;      Temps:          0       0       0       0       0       0       0       0       0       0       0       0       
      +0       0       0       0       0
  1795 ;;      Totals:         2       0       0       0       0       0       0       0       0       0       0       0       
      +0       0       0       0       0
  1796 ;;Total ram usage:        2 bytes
  1797 ;; Hardware stack levels used: 1
  1798 ;; Hardware stack levels required when called: 5
  1799 ;; This function calls:
  1800 ;;		Nothing
  1801 ;; This function is called by:
  1802 ;;		_EUSART_Initialize
  1803 ;; This function uses a non-reentrant model
  1804 ;;
  1805                           
  1806                           	psect	text13
  1807   000A12                     __ptext13:
  1808                           	callstack 0
  1809   000A12                     _EUSART_SetErrorHandler:
  1810                           	callstack 23
  1811   000A12                     
  1812                           ;mcc_generated_files/eusart.c: 166:     EUSART_ErrorHandler = interruptHandler;
  1813   000A12  C02B  F01F         	movff	EUSART_SetErrorHandler@interruptHandler,_EUSART_ErrorHandler
  1814   000A16  C02C  F020         	movff	EUSART_SetErrorHandler@interruptHandler+1,_EUSART_ErrorHandler+1
  1815   000A1A  0012               	return		;funcret
  1816   000A1C                     __end_of_EUSART_SetErrorHandler:
  1817                           	callstack 0
  1818                           
  1819 ;; *************** function _EUSART_Read *****************
  1820 ;; Defined at:
  1821 ;;		line 113 in file "mcc_generated_files/eusart.c"
  1822 ;; Parameters:    Size  Location     Type
  1823 ;;		None
  1824 ;; Auto vars:     Size  Location     Type
  1825 ;;		None
  1826 ;; Return value:  Size  Location     Type
  1827 ;;                  1    wreg      unsigned char 
  1828 ;; Registers used:
  1829 ;;		wreg, status,2
  1830 ;; Tracked objects:
  1831 ;;		On entry : 0/0
  1832 ;;		On exit  : 0/0
  1833 ;;		Unchanged: 0/0
  1834 ;; Data sizes:     COMRAM   BANK0   BANK1   BANK2   BANK3   BANK4   BANK5   BANK6   BANK7   BANK8   BANK9  BANK10  BANK1
      +1  BANK12  BANK13  BANK14  BANK15
  1835 ;;      Params:         0       0       0       0       0       0       0       0       0       0       0       0       
      +0       0       0       0       0
  1836 ;;      Locals:         0       0       0       0       0       0       0       0       0       0       0       0       
      +0       0       0       0       0
  1837 ;;      Temps:          0       0       0       0       0       0       0       0       0       0       0       0       
      +0       0       0       0       0
  1838 ;;      Totals:         0       0       0       0       0       0       0       0       0       0       0       0       
      +0       0       0       0       0
  1839 ;;Total ram usage:        0 bytes
  1840 ;; Hardware stack levels used: 1
  1841 ;; Hardware stack levels required when called: 5
  1842 ;; This function calls:
  1843 ;;		Nothing
  1844 ;; This function is called by:
  1845 ;;		_main
  1846 ;; This function uses a non-reentrant model
  1847 ;;
  1848                           
  1849                           	psect	text14
  1850   000878                     __ptext14:
  1851                           	callstack 0
  1852   000878                     _EUSART_Read:
  1853                           	callstack 25
  1854   000878                     l440:
  1855                           
  1856                           ;mcc_generated_files/eusart.c: 115:     while(!PIR1bits.RC1IF)
  1857   000878  AA9E               	btfss	158,5,c	;volatile
  1858   00087A  EF41  F004         	goto	u251
  1859   00087E  EF43  F004         	goto	u250
  1860   000882                     u251:
  1861   000882  EF3C  F004         	goto	l440
  1862   000886                     u250:
  1863   000886                     
  1864                           ;mcc_generated_files/eusart.c: 119:     eusartRxLastError.status = 0;
  1865   000886  0E00               	movlw	0
  1866   000888  6E16               	movwf	_eusartRxLastError^0,c	;volatile
  1867   00088A                     
  1868                           ;mcc_generated_files/eusart.c: 121:     if(1 == RCSTAbits.OERR)
  1869   00088A  A2AB               	btfss	171,1,c	;volatile
  1870   00088C  EF4A  F004         	goto	u261
  1871   000890  EF4C  F004         	goto	u260
  1872   000894                     u261:
  1873   000894  EF4E  F004         	goto	l1754
  1874   000898                     u260:
  1875   000898                     
  1876                           ;mcc_generated_files/eusart.c: 122:     {;mcc_generated_files/eusart.c: 125:         RCS
      +                          TAbits.CREN = 0;
  1877   000898  98AB               	bcf	171,4,c	;volatile
  1878                           
  1879                           ;mcc_generated_files/eusart.c: 126:         RCSTAbits.CREN = 1;
  1880   00089A  88AB               	bsf	171,4,c	;volatile
  1881   00089C                     l1754:
  1882                           
  1883                           ;mcc_generated_files/eusart.c: 129:     return RCREG;
  1884   00089C  50AE               	movf	174,w,c	;volatile
  1885   00089E  0012               	return		;funcret
  1886   0008A0                     __end_of_EUSART_Read:
  1887                           	callstack 0
  1888                           
  1889 ;; *************** function _DATAEE_WriteByte *****************
  1890 ;; Defined at:
  1891 ;;		line 173 in file "mcc_generated_files/memory.c"
  1892 ;; Parameters:    Size  Location     Type
  1893 ;;  bAdd            2    5[COMRAM] unsigned short 
  1894 ;;  bData           1    7[COMRAM] unsigned char 
  1895 ;; Auto vars:     Size  Location     Type
  1896 ;;  GIEBitValue     1    8[COMRAM] unsigned char 
  1897 ;; Return value:  Size  Location     Type
  1898 ;;                  1    wreg      void 
  1899 ;; Registers used:
  1900 ;;		wreg, status,2, status,0
  1901 ;; Tracked objects:
  1902 ;;		On entry : 0/0
  1903 ;;		On exit  : 0/0
  1904 ;;		Unchanged: 0/0
  1905 ;; Data sizes:     COMRAM   BANK0   BANK1   BANK2   BANK3   BANK4   BANK5   BANK6   BANK7   BANK8   BANK9  BANK10  BANK1
      +1  BANK12  BANK13  BANK14  BANK15
  1906 ;;      Params:         3       0       0       0       0       0       0       0       0       0       0       0       
      +0       0       0       0       0
  1907 ;;      Locals:         1       0       0       0       0       0       0       0       0       0       0       0       
      +0       0       0       0       0
  1908 ;;      Temps:          0       0       0       0       0       0       0       0       0       0       0       0       
      +0       0       0       0       0
  1909 ;;      Totals:         4       0       0       0       0       0       0       0       0       0       0       0       
      +0       0       0       0       0
  1910 ;;Total ram usage:        4 bytes
  1911 ;; Hardware stack levels used: 1
  1912 ;; Hardware stack levels required when called: 5
  1913 ;; This function calls:
  1914 ;;		Nothing
  1915 ;; This function is called by:
  1916 ;;		_main
  1917 ;; This function uses a non-reentrant model
  1918 ;;
  1919                           
  1920                           	psect	text15
  1921   0006BC                     __ptext15:
  1922                           	callstack 0
  1923   0006BC                     _DATAEE_WriteByte:
  1924                           	callstack 25
  1925   0006BC                     
  1926                           ;mcc_generated_files/memory.c: 173: void DATAEE_WriteByte(uint16_t bAdd, uint8_t bData);
      +                          mcc_generated_files/memory.c: 174: {;mcc_generated_files/memory.c: 175:     uint8_t GIEB
      +                          itValue = INTCONbits.GIE;
  1927   0006BC  0E00               	movlw	0
  1928   0006BE  BEF2               	btfsc	242,7,c	;volatile
  1929   0006C0  0E01               	movlw	1
  1930   0006C2  6E2E               	movwf	DATAEE_WriteByte@GIEBitValue^0,c
  1931   0006C4                     
  1932                           ;mcc_generated_files/memory.c: 177:     EEADRH = ((bAdd >> 8) & 0x03);
  1933   0006C4  502C               	movf	(DATAEE_WriteByte@bAdd+1)^0,w,c
  1934   0006C6  0B03               	andlw	3
  1935   0006C8  6EAA               	movwf	170,c	;volatile
  1936   0006CA                     
  1937                           ;mcc_generated_files/memory.c: 178:     EEADR = (bAdd & 0xFF);
  1938   0006CA  C02B  FFA9         	movff	DATAEE_WriteByte@bAdd,4009	;volatile
  1939   0006CE                     
  1940                           ;mcc_generated_files/memory.c: 179:     EEDATA = bData;
  1941   0006CE  C02D  FFA8         	movff	DATAEE_WriteByte@bData,4008	;volatile
  1942   0006D2                     
  1943                           ;mcc_generated_files/memory.c: 180:     EECON1bits.EEPGD = 0;
  1944   0006D2  9EA6               	bcf	166,7,c	;volsfr
  1945   0006D4                     
  1946                           ;mcc_generated_files/memory.c: 181:     EECON1bits.CFGS = 0;
  1947   0006D4  9CA6               	bcf	166,6,c	;volsfr
  1948   0006D6                     
  1949                           ;mcc_generated_files/memory.c: 182:     EECON1bits.WREN = 1;
  1950   0006D6  84A6               	bsf	166,2,c	;volsfr
  1951   0006D8                     
  1952                           ;mcc_generated_files/memory.c: 183:     INTCONbits.GIE = 0;
  1953   0006D8  9EF2               	bcf	242,7,c	;volatile
  1954   0006DA                     
  1955                           ;mcc_generated_files/memory.c: 184:     EECON2 = 0x55;
  1956   0006DA  0E55               	movlw	85
  1957   0006DC  6EA7               	movwf	167,c	;volsfr
  1958   0006DE                     
  1959                           ;mcc_generated_files/memory.c: 185:     EECON2 = 0xAA;
  1960   0006DE  0EAA               	movlw	170
  1961   0006E0  6EA7               	movwf	167,c	;volsfr
  1962   0006E2                     
  1963                           ;mcc_generated_files/memory.c: 186:     EECON1bits.WR = 1;
  1964   0006E2  82A6               	bsf	166,1,c	;volsfr
  1965   0006E4                     l524:
  1966                           
  1967                           ;mcc_generated_files/memory.c: 188:     while (EECON1bits.WR)
  1968   0006E4  B2A6               	btfsc	166,1,c	;volsfr
  1969   0006E6  EF77  F003         	goto	u901
  1970   0006EA  EF79  F003         	goto	u900
  1971   0006EE                     u901:
  1972   0006EE  EF72  F003         	goto	l524
  1973   0006F2                     u900:
  1974   0006F2                     
  1975                           ;mcc_generated_files/memory.c: 192:     EECON1bits.WREN = 0;
  1976   0006F2  94A6               	bcf	166,2,c	;volsfr
  1977                           
  1978                           ;mcc_generated_files/memory.c: 193:     INTCONbits.GIE = GIEBitValue;
  1979   0006F4  B02E               	btfsc	DATAEE_WriteByte@GIEBitValue^0,0,c
  1980   0006F6  D002               	bra	u915
  1981   0006F8  9EF2               	bcf	242,7,c	;volatile
  1982   0006FA  D001               	bra	u916
  1983   0006FC                     u915:
  1984   0006FC  8EF2               	bsf	242,7,c	;volatile
  1985   0006FE                     u916:
  1986   0006FE  0012               	return		;funcret
  1987   000700                     __end_of_DATAEE_WriteByte:
  1988                           	callstack 0
  1989                           
  1990 ;; *************** function _INTERRUPT_InterruptManagerHigh *****************
  1991 ;; Defined at:
  1992 ;;		line 74 in file "mcc_generated_files/interrupt_manager.c"
  1993 ;; Parameters:    Size  Location     Type
  1994 ;;		None
  1995 ;; Auto vars:     Size  Location     Type
  1996 ;;		None
  1997 ;; Return value:  Size  Location     Type
  1998 ;;                  1    wreg      void 
  1999 ;; Registers used:
  2000 ;;		wreg, status,2, status,0, pcl, pclath, pclatu, tosl, cstack
  2001 ;; Tracked objects:
  2002 ;;		On entry : 0/0
  2003 ;;		On exit  : 0/0
  2004 ;;		Unchanged: 0/0
  2005 ;; Data sizes:     COMRAM   BANK0   BANK1   BANK2   BANK3   BANK4   BANK5   BANK6   BANK7   BANK8   BANK9  BANK10  BANK1
      +1  BANK12  BANK13  BANK14  BANK15
  2006 ;;      Params:         0       0       0       0       0       0       0       0       0       0       0       0       
      +0       0       0       0       0
  2007 ;;      Locals:         0       0       0       0       0       0       0       0       0       0       0       0       
      +0       0       0       0       0
  2008 ;;      Temps:          2       0       0       0       0       0       0       0       0       0       0       0       
      +0       0       0       0       0
  2009 ;;      Totals:         2       0       0       0       0       0       0       0       0       0       0       0       
      +0       0       0       0       0
  2010 ;;Total ram usage:        2 bytes
  2011 ;; Hardware stack levels used: 1
  2012 ;; Hardware stack levels required when called: 4
  2013 ;; This function calls:
  2014 ;;		NULL
  2015 ;;		_I2C_Isr
  2016 ;;		_TMR1_ISR
  2017 ;;		_TMR3_ISR
  2018 ;; This function is called by:
  2019 ;;		Interrupt level 2
  2020 ;; This function uses a non-reentrant model
  2021 ;;
  2022                           
  2023                           	psect	intcode
  2024   000008                     __pintcode:
  2025                           	callstack 0
  2026   000008                     _INTERRUPT_InterruptManagerHigh:
  2027                           	callstack 23
  2028                           
  2029                           ;incstack = 0
  2030   000008  8231               	bsf	int$flags,1,c	;set compiler interrupt flag (level 2)
  2031   00000A  CFFA F029          	movff	pclath,??_INTERRUPT_InterruptManagerHigh
  2032   00000E  CFFB F02A          	movff	pclatu,??_INTERRUPT_InterruptManagerHigh+1
  2033   000012                     
  2034                           ;mcc_generated_files/interrupt_manager.c: 77:     if(PIE2bits.BCLIE == 1 && PIR2bits.BCL
      +                          IF == 1)
  2035   000012  A6A0               	btfss	160,3,c	;volatile
  2036   000014  EF0E  F000         	goto	i2u92_41
  2037   000018  EF10  F000         	goto	i2u92_40
  2038   00001C                     i2u92_41:
  2039   00001C  EF26  F000         	goto	i2l110
  2040   000020                     i2u92_40:
  2041   000020  A6A1               	btfss	161,3,c	;volatile
  2042   000022  EF15  F000         	goto	i2u93_41
  2043   000026  EF17  F000         	goto	i2u93_40
  2044   00002A                     i2u93_41:
  2045   00002A  EF26  F000         	goto	i2l110
  2046   00002E                     i2u93_40:
  2047   00002E                     i2l2320:
  2048                           
  2049                           ;mcc_generated_files/interrupt_manager.c: 78:     {;mcc_generated_files/interrupt_manage
      +                          r.c: 79:         MSSP_InterruptHandler();
  2050   00002E  D802               	call	i2u94_48
  2051   000030  EF24  F000         	goto	i2u94_49
  2052   000034                     i2u94_48:
  2053   000034  0005               	push	
  2054   000036  6EFA               	movwf	pclath,c
  2055   000038  500F               	movf	_MSSP_InterruptHandler^0,w,c
  2056   00003A  6EFD               	movwf	tosl,c
  2057   00003C  5010               	movf	(_MSSP_InterruptHandler+1)^0,w,c
  2058   00003E  6EFE               	movwf	tosh,c
  2059   000040  50F8               	movf	tblptru,w,c
  2060   000042  6EFF               	movwf	tosu,c
  2061   000044  50FA               	movf	pclath,w,c
  2062   000046  0012               	return		;indir
  2063   000048                     i2u94_49:
  2064                           
  2065                           ;mcc_generated_files/interrupt_manager.c: 80:     }
  2066   000048  EF5A  F000         	goto	i2l118
  2067   00004C                     i2l110:
  2068   00004C  A69D               	btfss	157,3,c	;volatile
  2069   00004E  EF2B  F000         	goto	i2u95_41
  2070   000052  EF2D  F000         	goto	i2u95_40
  2071   000056                     i2u95_41:
  2072   000056  EF36  F000         	goto	i2l112
  2073   00005A                     i2u95_40:
  2074   00005A  A69E               	btfss	158,3,c	;volatile
  2075   00005C  EF32  F000         	goto	i2u96_41
  2076   000060  EF34  F000         	goto	i2u96_40
  2077   000064                     i2u96_41:
  2078   000064  EF36  F000         	goto	i2l112
  2079   000068                     i2u96_40:
  2080   000068  EF17  F000         	goto	i2l2320
  2081   00006C                     i2l112:
  2082   00006C  A2A0               	btfss	160,1,c	;volatile
  2083   00006E  EF3B  F000         	goto	i2u97_41
  2084   000072  EF3D  F000         	goto	i2u97_40
  2085   000076                     i2u97_41:
  2086   000076  EF48  F000         	goto	i2l114
  2087   00007A                     i2u97_40:
  2088   00007A  A2A1               	btfss	161,1,c	;volatile
  2089   00007C  EF42  F000         	goto	i2u98_41
  2090   000080  EF44  F000         	goto	i2u98_40
  2091   000084                     i2u98_41:
  2092   000084  EF48  F000         	goto	i2l114
  2093   000088                     i2u98_40:
  2094   000088                     
  2095                           ;mcc_generated_files/interrupt_manager.c: 86:     {;mcc_generated_files/interrupt_manage
      +                          r.c: 87:         TMR3_ISR();
  2096   000088  EC9F  F003         	call	_TMR3_ISR	;wreg free
  2097                           
  2098                           ;mcc_generated_files/interrupt_manager.c: 88:     }
  2099   00008C  EF5A  F000         	goto	i2l118
  2100   000090                     i2l114:
  2101   000090  A09D               	btfss	157,0,c	;volatile
  2102   000092  EF4D  F000         	goto	i2u99_41
  2103   000096  EF4F  F000         	goto	i2u99_40
  2104   00009A                     i2u99_41:
  2105   00009A  EF5A  F000         	goto	i2l113
  2106   00009E                     i2u99_40:
  2107   00009E  A09E               	btfss	158,0,c	;volatile
  2108   0000A0  EF54  F000         	goto	i2u100_41
  2109   0000A4  EF56  F000         	goto	i2u100_40
  2110   0000A8                     i2u100_41:
  2111   0000A8  EF5A  F000         	goto	i2l113
  2112   0000AC                     i2u100_40:
  2113   0000AC                     
  2114                           ;mcc_generated_files/interrupt_manager.c: 90:     {;mcc_generated_files/interrupt_manage
      +                          r.c: 91:         TMR1_ISR();
  2115   0000AC  ECBD  F003         	call	_TMR1_ISR	;wreg free
  2116                           
  2117                           ;mcc_generated_files/interrupt_manager.c: 92:     }
  2118   0000B0  EF5A  F000         	goto	i2l118
  2119   0000B4                     i2l113:
  2120   0000B4                     i2l118:
  2121   0000B4  C02A  FFFB         	movff	??_INTERRUPT_InterruptManagerHigh+1,pclatu
  2122   0000B8  C029  FFFA         	movff	??_INTERRUPT_InterruptManagerHigh,pclath
  2123   0000BC  9231               	bcf	int$flags,1,c	;clear compiler interrupt flag (level 2)
  2124   0000BE  0011               	retfie		f
  2125   0000C0                     __end_of_INTERRUPT_InterruptManagerHigh:
  2126                           	callstack 0
  2127                           
  2128 ;; *************** function _TMR3_ISR *****************
  2129 ;; Defined at:
  2130 ;;		line 145 in file "mcc_generated_files/tmr3.c"
  2131 ;; Parameters:    Size  Location     Type
  2132 ;;		None
  2133 ;; Auto vars:     Size  Location     Type
  2134 ;;		None
  2135 ;; Return value:  Size  Location     Type
  2136 ;;                  1    wreg      void 
  2137 ;; Registers used:
  2138 ;;		wreg, status,2, status,0, pcl, pclath, pclatu, tosl, cstack
  2139 ;; Tracked objects:
  2140 ;;		On entry : 0/0
  2141 ;;		On exit  : 0/0
  2142 ;;		Unchanged: 0/0
  2143 ;; Data sizes:     COMRAM   BANK0   BANK1   BANK2   BANK3   BANK4   BANK5   BANK6   BANK7   BANK8   BANK9  BANK10  BANK1
      +1  BANK12  BANK13  BANK14  BANK15
  2144 ;;      Params:         0       0       0       0       0       0       0       0       0       0       0       0       
      +0       0       0       0       0
  2145 ;;      Locals:         0       0       0       0       0       0       0       0       0       0       0       0       
      +0       0       0       0       0
  2146 ;;      Temps:          0       0       0       0       0       0       0       0       0       0       0       0       
      +0       0       0       0       0
  2147 ;;      Totals:         0       0       0       0       0       0       0       0       0       0       0       0       
      +0       0       0       0       0
  2148 ;;Total ram usage:        0 bytes
  2149 ;; Hardware stack levels used: 1
  2150 ;; Hardware stack levels required when called: 1
  2151 ;; This function calls:
  2152 ;;		NULL
  2153 ;;		_TMR3_DefaultInterruptHandler
  2154 ;;		_TMR3_WriteTimer
  2155 ;; This function is called by:
  2156 ;;		_INTERRUPT_InterruptManagerHigh
  2157 ;; This function uses a non-reentrant model
  2158 ;;
  2159                           
  2160                           	psect	text17
  2161   00073E                     __ptext17:
  2162                           	callstack 0
  2163   00073E                     _TMR3_ISR:
  2164                           	callstack 25
  2165   00073E                     
  2166                           ;mcc_generated_files/tmr3.c: 149:     PIR2bits.TMR3IF = 0;
  2167   00073E  92A1               	bcf	161,1,c	;volatile
  2168   000740                     
  2169                           ;mcc_generated_files/tmr3.c: 150:     TMR3_WriteTimer(timer3ReloadVal);
  2170   000740  C001  F026         	movff	_timer3ReloadVal,TMR3_WriteTimer@timerVal	;volatile
  2171   000744  C002  F027         	movff	_timer3ReloadVal+1,TMR3_WriteTimer@timerVal+1	;volatile
  2172   000748  EC50  F004         	call	_TMR3_WriteTimer	;wreg free
  2173   00074C                     
  2174                           ;mcc_generated_files/tmr3.c: 152:     if(TMR3_InterruptHandler)
  2175   00074C  501B               	movf	_TMR3_InterruptHandler^0,w,c
  2176   00074E  101C               	iorwf	(_TMR3_InterruptHandler+1)^0,w,c
  2177   000750  B4D8               	btfsc	status,2,c
  2178   000752  EFAD  F003         	goto	i2u86_41
  2179   000756  EFAF  F003         	goto	i2u86_40
  2180   00075A                     i2u86_41:
  2181   00075A  EFBC  F003         	goto	i2l631
  2182   00075E                     i2u86_40:
  2183   00075E                     
  2184                           ;mcc_generated_files/tmr3.c: 153:     {;mcc_generated_files/tmr3.c: 154:         TMR3_In
      +                          terruptHandler();
  2185   00075E  D802               	call	i2u87_48
  2186   000760  EFBC  F003         	goto	i2u87_49
  2187   000764                     i2u87_48:
  2188   000764  0005               	push	
  2189   000766  6EFA               	movwf	pclath,c
  2190   000768  501B               	movf	_TMR3_InterruptHandler^0,w,c
  2191   00076A  6EFD               	movwf	tosl,c
  2192   00076C  501C               	movf	(_TMR3_InterruptHandler+1)^0,w,c
  2193   00076E  6EFE               	movwf	tosh,c
  2194   000770  50F8               	movf	tblptru,w,c
  2195   000772  6EFF               	movwf	tosu,c
  2196   000774  50FA               	movf	pclath,w,c
  2197   000776  0012               	return		;indir
  2198   000778                     i2u87_49:
  2199   000778                     i2l631:
  2200   000778  0012               	return		;funcret
  2201   00077A                     __end_of_TMR3_ISR:
  2202                           	callstack 0
  2203                           
  2204 ;; *************** function _TMR3_WriteTimer *****************
  2205 ;; Defined at:
  2206 ;;		line 118 in file "mcc_generated_files/tmr3.c"
  2207 ;; Parameters:    Size  Location     Type
  2208 ;;  timerVal        2    0[COMRAM] unsigned short 
  2209 ;; Auto vars:     Size  Location     Type
  2210 ;;		None
  2211 ;; Return value:  Size  Location     Type
  2212 ;;                  1    wreg      void 
  2213 ;; Registers used:
  2214 ;;		wreg, status,2
  2215 ;; Tracked objects:
  2216 ;;		On entry : 0/0
  2217 ;;		On exit  : 0/0
  2218 ;;		Unchanged: 0/0
  2219 ;; Data sizes:     COMRAM   BANK0   BANK1   BANK2   BANK3   BANK4   BANK5   BANK6   BANK7   BANK8   BANK9  BANK10  BANK1
      +1  BANK12  BANK13  BANK14  BANK15
  2220 ;;      Params:         2       0       0       0       0       0       0       0       0       0       0       0       
      +0       0       0       0       0
  2221 ;;      Locals:         0       0       0       0       0       0       0       0       0       0       0       0       
      +0       0       0       0       0
  2222 ;;      Temps:          0       0       0       0       0       0       0       0       0       0       0       0       
      +0       0       0       0       0
  2223 ;;      Totals:         2       0       0       0       0       0       0       0       0       0       0       0       
      +0       0       0       0       0
  2224 ;;Total ram usage:        2 bytes
  2225 ;; Hardware stack levels used: 1
  2226 ;; This function calls:
  2227 ;;		Nothing
  2228 ;; This function is called by:
  2229 ;;		_TMR3_ISR
  2230 ;;		_TMR3_Reload
  2231 ;; This function uses a non-reentrant model
  2232 ;;
  2233                           
  2234                           	psect	text18
  2235   0008A0                     __ptext18:
  2236                           	callstack 0
  2237   0008A0                     _TMR3_WriteTimer:
  2238                           	callstack 25
  2239   0008A0                     
  2240                           ;mcc_generated_files/tmr3.c: 118: void TMR3_WriteTimer(uint16_t timerVal);mcc_generated_
      +                          files/tmr3.c: 119: {;mcc_generated_files/tmr3.c: 120:     if (T3CONbits.nT3SYNC == 1)
  2241   0008A0  A4B1               	btfss	177,2,c	;volatile
  2242   0008A2  EF55  F004         	goto	i2u85_41
  2243   0008A6  EF57  F004         	goto	i2u85_40
  2244   0008AA                     i2u85_41:
  2245   0008AA  EF5F  F004         	goto	i2l2260
  2246   0008AE                     i2u85_40:
  2247   0008AE                     
  2248                           ;mcc_generated_files/tmr3.c: 121:     {;mcc_generated_files/tmr3.c: 123:         T3CONbi
      +                          ts.TMR3ON = 0;
  2249   0008AE  90B1               	bcf	177,0,c	;volatile
  2250   0008B0                     
  2251                           ;mcc_generated_files/tmr3.c: 126:         TMR3H = (uint8_t)(timerVal >> 8);
  2252   0008B0  5027               	movf	(TMR3_WriteTimer@timerVal+1)^0,w,c
  2253   0008B2  6EB3               	movwf	179,c	;volatile
  2254   0008B4                     
  2255                           ;mcc_generated_files/tmr3.c: 127:         TMR3L = (uint8_t)timerVal;
  2256   0008B4  C026  FFB2         	movff	TMR3_WriteTimer@timerVal,4018	;volatile
  2257   0008B8                     
  2258                           ;mcc_generated_files/tmr3.c: 130:         T3CONbits.TMR3ON =1;
  2259   0008B8  80B1               	bsf	177,0,c	;volatile
  2260                           
  2261                           ;mcc_generated_files/tmr3.c: 131:     }
  2262   0008BA  EF63  F004         	goto	i2l624
  2263   0008BE                     i2l2260:
  2264                           
  2265                           ;mcc_generated_files/tmr3.c: 133:     {;mcc_generated_files/tmr3.c: 135:         TMR3H =
      +                           (uint8_t)(timerVal >> 8);
  2266   0008BE  5027               	movf	(TMR3_WriteTimer@timerVal+1)^0,w,c
  2267   0008C0  6EB3               	movwf	179,c	;volatile
  2268   0008C2                     
  2269                           ;mcc_generated_files/tmr3.c: 136:         TMR3L = (uint8_t)timerVal;
  2270   0008C2  C026  FFB2         	movff	TMR3_WriteTimer@timerVal,4018	;volatile
  2271   0008C6                     i2l624:
  2272   0008C6  0012               	return		;funcret
  2273   0008C8                     __end_of_TMR3_WriteTimer:
  2274                           	callstack 0
  2275                           
  2276 ;; *************** function _TMR3_DefaultInterruptHandler *****************
  2277 ;; Defined at:
  2278 ;;		line 163 in file "mcc_generated_files/tmr3.c"
  2279 ;; Parameters:    Size  Location     Type
  2280 ;;		None
  2281 ;; Auto vars:     Size  Location     Type
  2282 ;;		None
  2283 ;; Return value:  Size  Location     Type
  2284 ;;                  1    wreg      void 
  2285 ;; Registers used:
  2286 ;;		None
  2287 ;; Tracked objects:
  2288 ;;		On entry : 0/0
  2289 ;;		On exit  : 0/0
  2290 ;;		Unchanged: 0/0
  2291 ;; Data sizes:     COMRAM   BANK0   BANK1   BANK2   BANK3   BANK4   BANK5   BANK6   BANK7   BANK8   BANK9  BANK10  BANK1
      +1  BANK12  BANK13  BANK14  BANK15
  2292 ;;      Params:         0       0       0       0       0       0       0       0       0       0       0       0       
      +0       0       0       0       0
  2293 ;;      Locals:         0       0       0       0       0       0       0       0       0       0       0       0       
      +0       0       0       0       0
  2294 ;;      Temps:          0       0       0       0       0       0       0       0       0       0       0       0       
      +0       0       0       0       0
  2295 ;;      Totals:         0       0       0       0       0       0       0       0       0       0       0       0       
      +0       0       0       0       0
  2296 ;;Total ram usage:        0 bytes
  2297 ;; Hardware stack levels used: 1
  2298 ;; This function calls:
  2299 ;;		Nothing
  2300 ;; This function is called by:
  2301 ;;		_TMR3_Initialize
  2302 ;;		_TMR3_ISR
  2303 ;; This function uses a non-reentrant model
  2304 ;;
  2305                           
  2306                           	psect	text19
  2307   000A48                     __ptext19:
  2308                           	callstack 0
  2309   000A48                     _TMR3_DefaultInterruptHandler:
  2310                           	callstack 25
  2311   000A48  0012               	return		;funcret
  2312   000A4A                     __end_of_TMR3_DefaultInterruptHandler:
  2313                           	callstack 0
  2314                           
  2315 ;; *************** function _TMR1_ISR *****************
  2316 ;; Defined at:
  2317 ;;		line 145 in file "mcc_generated_files/tmr1.c"
  2318 ;; Parameters:    Size  Location     Type
  2319 ;;		None
  2320 ;; Auto vars:     Size  Location     Type
  2321 ;;		None
  2322 ;; Return value:  Size  Location     Type
  2323 ;;                  1    wreg      void 
  2324 ;; Registers used:
  2325 ;;		wreg, status,2, status,0, pcl, pclath, pclatu, tosl, cstack
  2326 ;; Tracked objects:
  2327 ;;		On entry : 0/0
  2328 ;;		On exit  : 0/0
  2329 ;;		Unchanged: 0/0
  2330 ;; Data sizes:     COMRAM   BANK0   BANK1   BANK2   BANK3   BANK4   BANK5   BANK6   BANK7   BANK8   BANK9  BANK10  BANK1
      +1  BANK12  BANK13  BANK14  BANK15
  2331 ;;      Params:         0       0       0       0       0       0       0       0       0       0       0       0       
      +0       0       0       0       0
  2332 ;;      Locals:         0       0       0       0       0       0       0       0       0       0       0       0       
      +0       0       0       0       0
  2333 ;;      Temps:          0       0       0       0       0       0       0       0       0       0       0       0       
      +0       0       0       0       0
  2334 ;;      Totals:         0       0       0       0       0       0       0       0       0       0       0       0       
      +0       0       0       0       0
  2335 ;;Total ram usage:        0 bytes
  2336 ;; Hardware stack levels used: 1
  2337 ;; Hardware stack levels required when called: 1
  2338 ;; This function calls:
  2339 ;;		NULL
  2340 ;;		_TMR1_DefaultInterruptHandler
  2341 ;;		_TMR1_WriteTimer
  2342 ;; This function is called by:
  2343 ;;		_INTERRUPT_InterruptManagerHigh
  2344 ;; This function uses a non-reentrant model
  2345 ;;
  2346                           
  2347                           	psect	text20
  2348   00077A                     __ptext20:
  2349                           	callstack 0
  2350   00077A                     _TMR1_ISR:
  2351                           	callstack 25
  2352   00077A                     
  2353                           ;mcc_generated_files/tmr1.c: 149:     PIR1bits.TMR1IF = 0;
  2354   00077A  909E               	bcf	158,0,c	;volatile
  2355   00077C                     
  2356                           ;mcc_generated_files/tmr1.c: 150:     TMR1_WriteTimer(timer1ReloadVal);
  2357   00077C  C003  F026         	movff	_timer1ReloadVal,TMR1_WriteTimer@timerVal	;volatile
  2358   000780  C004  F027         	movff	_timer1ReloadVal+1,TMR1_WriteTimer@timerVal+1	;volatile
  2359   000784  EC64  F004         	call	_TMR1_WriteTimer	;wreg free
  2360   000788                     
  2361                           ;mcc_generated_files/tmr1.c: 152:     if(TMR1_InterruptHandler)
  2362   000788  501D               	movf	_TMR1_InterruptHandler^0,w,c
  2363   00078A  101E               	iorwf	(_TMR1_InterruptHandler+1)^0,w,c
  2364   00078C  B4D8               	btfsc	status,2,c
  2365   00078E  EFCB  F003         	goto	i2u88_41
  2366   000792  EFCD  F003         	goto	i2u88_40
  2367   000796                     i2u88_41:
  2368   000796  EFDA  F003         	goto	i2l579
  2369   00079A                     i2u88_40:
  2370   00079A                     
  2371                           ;mcc_generated_files/tmr1.c: 153:     {;mcc_generated_files/tmr1.c: 154:         TMR1_In
      +                          terruptHandler();
  2372   00079A  D802               	call	i2u89_48
  2373   00079C  EFDA  F003         	goto	i2u89_49
  2374   0007A0                     i2u89_48:
  2375   0007A0  0005               	push	
  2376   0007A2  6EFA               	movwf	pclath,c
  2377   0007A4  501D               	movf	_TMR1_InterruptHandler^0,w,c
  2378   0007A6  6EFD               	movwf	tosl,c
  2379   0007A8  501E               	movf	(_TMR1_InterruptHandler+1)^0,w,c
  2380   0007AA  6EFE               	movwf	tosh,c
  2381   0007AC  50F8               	movf	tblptru,w,c
  2382   0007AE  6EFF               	movwf	tosu,c
  2383   0007B0  50FA               	movf	pclath,w,c
  2384   0007B2  0012               	return		;indir
  2385   0007B4                     i2u89_49:
  2386   0007B4                     i2l579:
  2387   0007B4  0012               	return		;funcret
  2388   0007B6                     __end_of_TMR1_ISR:
  2389                           	callstack 0
  2390                           
  2391 ;; *************** function _TMR1_WriteTimer *****************
  2392 ;; Defined at:
  2393 ;;		line 118 in file "mcc_generated_files/tmr1.c"
  2394 ;; Parameters:    Size  Location     Type
  2395 ;;  timerVal        2    0[COMRAM] unsigned short 
  2396 ;; Auto vars:     Size  Location     Type
  2397 ;;		None
  2398 ;; Return value:  Size  Location     Type
  2399 ;;                  1    wreg      void 
  2400 ;; Registers used:
  2401 ;;		wreg, status,2
  2402 ;; Tracked objects:
  2403 ;;		On entry : 0/0
  2404 ;;		On exit  : 0/0
  2405 ;;		Unchanged: 0/0
  2406 ;; Data sizes:     COMRAM   BANK0   BANK1   BANK2   BANK3   BANK4   BANK5   BANK6   BANK7   BANK8   BANK9  BANK10  BANK1
      +1  BANK12  BANK13  BANK14  BANK15
  2407 ;;      Params:         2       0       0       0       0       0       0       0       0       0       0       0       
      +0       0       0       0       0
  2408 ;;      Locals:         0       0       0       0       0       0       0       0       0       0       0       0       
      +0       0       0       0       0
  2409 ;;      Temps:          0       0       0       0       0       0       0       0       0       0       0       0       
      +0       0       0       0       0
  2410 ;;      Totals:         2       0       0       0       0       0       0       0       0       0       0       0       
      +0       0       0       0       0
  2411 ;;Total ram usage:        2 bytes
  2412 ;; Hardware stack levels used: 1
  2413 ;; This function calls:
  2414 ;;		Nothing
  2415 ;; This function is called by:
  2416 ;;		_TMR1_ISR
  2417 ;;		_TMR1_Reload
  2418 ;; This function uses a non-reentrant model
  2419 ;;
  2420                           
  2421                           	psect	text21
  2422   0008C8                     __ptext21:
  2423                           	callstack 0
  2424   0008C8                     _TMR1_WriteTimer:
  2425                           	callstack 25
  2426   0008C8                     
  2427                           ;mcc_generated_files/tmr1.c: 118: void TMR1_WriteTimer(uint16_t timerVal);mcc_generated_
      +                          files/tmr1.c: 119: {;mcc_generated_files/tmr1.c: 120:     if (T1CONbits.nT1SYNC == 1)
  2428   0008C8  A4CD               	btfss	205,2,c	;volatile
  2429   0008CA  EF69  F004         	goto	i2u84_41
  2430   0008CE  EF6B  F004         	goto	i2u84_40
  2431   0008D2                     i2u84_41:
  2432   0008D2  EF73  F004         	goto	i2l2246
  2433   0008D6                     i2u84_40:
  2434   0008D6                     
  2435                           ;mcc_generated_files/tmr1.c: 121:     {;mcc_generated_files/tmr1.c: 123:         T1CONbi
      +                          ts.TMR1ON = 0;
  2436   0008D6  90CD               	bcf	205,0,c	;volatile
  2437   0008D8                     
  2438                           ;mcc_generated_files/tmr1.c: 126:         TMR1H = (uint8_t)(timerVal >> 8);
  2439   0008D8  5027               	movf	(TMR1_WriteTimer@timerVal+1)^0,w,c
  2440   0008DA  6ECF               	movwf	207,c	;volatile
  2441   0008DC                     
  2442                           ;mcc_generated_files/tmr1.c: 127:         TMR1L = (uint8_t)timerVal;
  2443   0008DC  C026  FFCE         	movff	TMR1_WriteTimer@timerVal,4046	;volatile
  2444   0008E0                     
  2445                           ;mcc_generated_files/tmr1.c: 130:         T1CONbits.TMR1ON =1;
  2446   0008E0  80CD               	bsf	205,0,c	;volatile
  2447                           
  2448                           ;mcc_generated_files/tmr1.c: 131:     }
  2449   0008E2  EF77  F004         	goto	i2l572
  2450   0008E6                     i2l2246:
  2451                           
  2452                           ;mcc_generated_files/tmr1.c: 133:     {;mcc_generated_files/tmr1.c: 135:         TMR1H =
      +                           (uint8_t)(timerVal >> 8);
  2453   0008E6  5027               	movf	(TMR1_WriteTimer@timerVal+1)^0,w,c
  2454   0008E8  6ECF               	movwf	207,c	;volatile
  2455   0008EA                     
  2456                           ;mcc_generated_files/tmr1.c: 136:         TMR1L = (uint8_t)timerVal;
  2457   0008EA  C026  FFCE         	movff	TMR1_WriteTimer@timerVal,4046	;volatile
  2458   0008EE                     i2l572:
  2459   0008EE  0012               	return		;funcret
  2460   0008F0                     __end_of_TMR1_WriteTimer:
  2461                           	callstack 0
  2462                           
  2463 ;; *************** function _TMR1_DefaultInterruptHandler *****************
  2464 ;; Defined at:
  2465 ;;		line 163 in file "mcc_generated_files/tmr1.c"
  2466 ;; Parameters:    Size  Location     Type
  2467 ;;		None
  2468 ;; Auto vars:     Size  Location     Type
  2469 ;;		None
  2470 ;; Return value:  Size  Location     Type
  2471 ;;                  1    wreg      void 
  2472 ;; Registers used:
  2473 ;;		None
  2474 ;; Tracked objects:
  2475 ;;		On entry : 0/0
  2476 ;;		On exit  : 0/0
  2477 ;;		Unchanged: 0/0
  2478 ;; Data sizes:     COMRAM   BANK0   BANK1   BANK2   BANK3   BANK4   BANK5   BANK6   BANK7   BANK8   BANK9  BANK10  BANK1
      +1  BANK12  BANK13  BANK14  BANK15
  2479 ;;      Params:         0       0       0       0       0       0       0       0       0       0       0       0       
      +0       0       0       0       0
  2480 ;;      Locals:         0       0       0       0       0       0       0       0       0       0       0       0       
      +0       0       0       0       0
  2481 ;;      Temps:          0       0       0       0       0       0       0       0       0       0       0       0       
      +0       0       0       0       0
  2482 ;;      Totals:         0       0       0       0       0       0       0       0       0       0       0       0       
      +0       0       0       0       0
  2483 ;;Total ram usage:        0 bytes
  2484 ;; Hardware stack levels used: 1
  2485 ;; This function calls:
  2486 ;;		Nothing
  2487 ;; This function is called by:
  2488 ;;		_TMR1_Initialize
  2489 ;;		_TMR1_ISR
  2490 ;; This function uses a non-reentrant model
  2491 ;;
  2492                           
  2493                           	psect	text22
  2494   000A4A                     __ptext22:
  2495                           	callstack 0
  2496   000A4A                     _TMR1_DefaultInterruptHandler:
  2497                           	callstack 25
  2498   000A4A  0012               	return		;funcret
  2499   000A4C                     __end_of_TMR1_DefaultInterruptHandler:
  2500                           	callstack 0
  2501                           
  2502 ;; *************** function _I2C_Isr *****************
  2503 ;; Defined at:
  2504 ;;		line 165 in file "mcc_generated_files/i2c_slave.c"
  2505 ;; Parameters:    Size  Location     Type
  2506 ;;		None
  2507 ;; Auto vars:     Size  Location     Type
  2508 ;;		None
  2509 ;; Return value:  Size  Location     Type
  2510 ;;                  1    wreg      void 
  2511 ;; Registers used:
  2512 ;;		wreg, status,2, status,0, pcl, pclath, pclatu, tosl, cstack
  2513 ;; Tracked objects:
  2514 ;;		On entry : 0/0
  2515 ;;		On exit  : 0/0
  2516 ;;		Unchanged: 0/0
  2517 ;; Data sizes:     COMRAM   BANK0   BANK1   BANK2   BANK3   BANK4   BANK5   BANK6   BANK7   BANK8   BANK9  BANK10  BANK1
      +1  BANK12  BANK13  BANK14  BANK15
  2518 ;;      Params:         0       0       0       0       0       0       0       0       0       0       0       0       
      +0       0       0       0       0
  2519 ;;      Locals:         0       0       0       0       0       0       0       0       0       0       0       0       
      +0       0       0       0       0
  2520 ;;      Temps:          2       0       0       0       0       0       0       0       0       0       0       0       
      +0       0       0       0       0
  2521 ;;      Totals:         2       0       0       0       0       0       0       0       0       0       0       0       
      +0       0       0       0       0
  2522 ;;Total ram usage:        2 bytes
  2523 ;; Hardware stack levels used: 1
  2524 ;; Hardware stack levels required when called: 3
  2525 ;; This function calls:
  2526 ;;		_I2C_SlaveAddrCallBack
  2527 ;;		_I2C_SlaveClearIrq
  2528 ;;		_I2C_SlaveIsAddr
  2529 ;;		_I2C_SlaveIsRead
  2530 ;;		_I2C_SlaveIsRxBufFull
  2531 ;;		_I2C_SlaveIsTxBufEmpty
  2532 ;;		_I2C_SlaveRdCallBack
  2533 ;;		_I2C_SlaveReleaseClock
  2534 ;;		_I2C_SlaveWrCallBack
  2535 ;; This function is called by:
  2536 ;;		_I2C_Open
  2537 ;;		_INTERRUPT_InterruptManagerHigh
  2538 ;; This function uses a non-reentrant model
  2539 ;;
  2540                           
  2541                           	psect	text23
  2542   0005C0                     __ptext23:
  2543                           	callstack 0
  2544   0005C0                     _I2C_Isr:
  2545                           	callstack 23
  2546   0005C0                     
  2547                           ;mcc_generated_files/i2c_slave.c: 167:     I2C_SlaveClearIrq();
  2548   0005C0  EC20  F005         	call	_I2C_SlaveClearIrq	;wreg free
  2549   0005C4                     
  2550                           ;mcc_generated_files/i2c_slave.c: 169:     if(I2C_SlaveIsAddr())
  2551   0005C4  ECD8  F004         	call	_I2C_SlaveIsAddr	;wreg free
  2552   0005C8  0900               	iorlw	0
  2553   0005CA  B4D8               	btfsc	status,2,c
  2554   0005CC  EFEA  F002         	goto	i2u19_41
  2555   0005D0  EFEC  F002         	goto	i2u19_40
  2556   0005D4                     i2u19_41:
  2557   0005D4  EFFE  F002         	goto	i2l1714
  2558   0005D8                     i2u19_40:
  2559   0005D8                     
  2560                           ;mcc_generated_files/i2c_slave.c: 170:     {;mcc_generated_files/i2c_slave.c: 171:      
      +                             if(I2C_SlaveIsRead())
  2561   0005D8  ECCE  F004         	call	_I2C_SlaveIsRead	;wreg free
  2562   0005DC  0900               	iorlw	0
  2563   0005DE  B4D8               	btfsc	status,2,c
  2564   0005E0  EFF4  F002         	goto	i2u20_41
  2565   0005E4  EFF6  F002         	goto	i2u20_40
  2566   0005E8                     i2u20_41:
  2567   0005E8  EFFA  F002         	goto	i2l1712
  2568   0005EC                     i2u20_40:
  2569   0005EC                     
  2570                           ;mcc_generated_files/i2c_slave.c: 172:         {;mcc_generated_files/i2c_slave.c: 173:  
      +                                     i2cSlaveState = I2C_ADDR_TX;
  2571   0005EC  0E01               	movlw	1
  2572   0005EE  6E17               	movwf	_i2cSlaveState^0,c	;volatile
  2573                           
  2574                           ;mcc_generated_files/i2c_slave.c: 174:         }
  2575   0005F0  EF3E  F003         	goto	i2l1738
  2576   0005F4                     i2l1712:
  2577                           
  2578                           ;mcc_generated_files/i2c_slave.c: 176:         {;mcc_generated_files/i2c_slave.c: 177:  
      +                                     i2cSlaveState = I2C_ADDR_RX;
  2579   0005F4  0E02               	movlw	2
  2580   0005F6  6E17               	movwf	_i2cSlaveState^0,c	;volatile
  2581   0005F8  EF3E  F003         	goto	i2l1738
  2582   0005FC                     i2l1714:
  2583                           
  2584                           ;mcc_generated_files/i2c_slave.c: 181:     {;mcc_generated_files/i2c_slave.c: 182:      
      +                             if(I2C_SlaveIsRead())
  2585   0005FC  ECCE  F004         	call	_I2C_SlaveIsRead	;wreg free
  2586   000600  0900               	iorlw	0
  2587   000602  B4D8               	btfsc	status,2,c
  2588   000604  EF06  F003         	goto	i2u21_41
  2589   000608  EF08  F003         	goto	i2u21_40
  2590   00060C                     i2u21_41:
  2591   00060C  EF0C  F003         	goto	i2l1718
  2592   000610                     i2u21_40:
  2593   000610                     
  2594                           ;mcc_generated_files/i2c_slave.c: 183:         {;mcc_generated_files/i2c_slave.c: 184:  
      +                                     i2cSlaveState = I2C_DATA_TX;
  2595   000610  0E03               	movlw	3
  2596   000612  6E17               	movwf	_i2cSlaveState^0,c	;volatile
  2597                           
  2598                           ;mcc_generated_files/i2c_slave.c: 185:         }
  2599   000614  EF3E  F003         	goto	i2l1738
  2600   000618                     i2l1718:
  2601                           
  2602                           ;mcc_generated_files/i2c_slave.c: 187:         {;mcc_generated_files/i2c_slave.c: 188:  
      +                                     i2cSlaveState = I2C_DATA_RX;
  2603   000618  0E04               	movlw	4
  2604   00061A  6E17               	movwf	_i2cSlaveState^0,c	;volatile
  2605   00061C  EF3E  F003         	goto	i2l1738
  2606   000620                     i2l1720:
  2607                           
  2608                           ;mcc_generated_files/i2c_slave.c: 195:             I2C_SlaveAddrCallBack();
  2609   000620  EC25  F004         	call	_I2C_SlaveAddrCallBack	;wreg free
  2610   000624                     
  2611                           ;mcc_generated_files/i2c_slave.c: 196:             if(I2C_SlaveIsTxBufEmpty())
  2612   000624  ECBA  F004         	call	_I2C_SlaveIsTxBufEmpty	;wreg free
  2613   000628  0900               	iorlw	0
  2614   00062A  B4D8               	btfsc	status,2,c
  2615   00062C  EF1A  F003         	goto	i2u22_41
  2616   000630  EF1C  F003         	goto	i2u22_40
  2617   000634                     i2u22_41:
  2618   000634  EF5B  F003         	goto	i2l1740
  2619   000638                     i2u22_40:
  2620   000638                     i2l1724:
  2621                           
  2622                           ;mcc_generated_files/i2c_slave.c: 197:             {;mcc_generated_files/i2c_slave.c: 19
      +                          8:                 I2C_SlaveWrCallBack();
  2623   000638  ECF7  F003         	call	_I2C_SlaveWrCallBack	;wreg free
  2624   00063C  EF5B  F003         	goto	i2l1740
  2625   000640                     i2l1726:
  2626                           
  2627                           ;mcc_generated_files/i2c_slave.c: 202:             I2C_SlaveAddrCallBack();
  2628   000640  EC25  F004         	call	_I2C_SlaveAddrCallBack	;wreg free
  2629                           
  2630                           ;mcc_generated_files/i2c_slave.c: 203:             break;
  2631   000644  EF5B  F003         	goto	i2l1740
  2632   000648                     i2l1728:
  2633                           
  2634                           ;mcc_generated_files/i2c_slave.c: 205:             if(I2C_SlaveIsTxBufEmpty())
  2635   000648  ECBA  F004         	call	_I2C_SlaveIsTxBufEmpty	;wreg free
  2636   00064C  0900               	iorlw	0
  2637   00064E  B4D8               	btfsc	status,2,c
  2638   000650  EF2C  F003         	goto	i2u23_41
  2639   000654  EF2E  F003         	goto	i2u23_40
  2640   000658                     i2u23_41:
  2641   000658  EF5B  F003         	goto	i2l1740
  2642   00065C                     i2u23_40:
  2643   00065C  EF1C  F003         	goto	i2l1724
  2644   000660                     i2l1732:
  2645                           
  2646                           ;mcc_generated_files/i2c_slave.c: 211:             if(I2C_SlaveIsRxBufFull())
  2647   000660  ECC4  F004         	call	_I2C_SlaveIsRxBufFull	;wreg free
  2648   000664  0900               	iorlw	0
  2649   000666  B4D8               	btfsc	status,2,c
  2650   000668  EF38  F003         	goto	i2u24_41
  2651   00066C  EF3A  F003         	goto	i2u24_40
  2652   000670                     i2u24_41:
  2653   000670  EF5B  F003         	goto	i2l1740
  2654   000674                     i2u24_40:
  2655   000674                     
  2656                           ;mcc_generated_files/i2c_slave.c: 212:             {;mcc_generated_files/i2c_slave.c: 21
      +                          3:                 I2C_SlaveRdCallBack();
  2657   000674  EC0E  F004         	call	_I2C_SlaveRdCallBack	;wreg free
  2658   000678  EF5B  F003         	goto	i2l1740
  2659   00067C                     i2l1738:
  2660   00067C  5017               	movf	_i2cSlaveState^0,w,c	;volatile
  2661   00067E  6E27               	movwf	??_I2C_Isr^0,c
  2662   000680  6A28               	clrf	(??_I2C_Isr+1)^0,c
  2663                           
  2664                           ; Switch on 2 bytes has been partitioned into a top level switch of size 1, and 1 sub-sw
      +                          itches
  2665                           ; Switch size 1, requested type "simple"
  2666                           ; Number of cases is 1, Range of values is 0 to 0
  2667                           ; switch strategies available:
  2668                           ; Name         Instructions Cycles
  2669                           ; simple_byte            4     3 (average)
  2670                           ;	Chosen strategy is simple_byte
  2671   000682  5028               	movf	(??_I2C_Isr+1)^0,w,c
  2672   000684  0A00               	xorlw	0	; case 0
  2673   000686  B4D8               	btfsc	status,2,c
  2674   000688  EF48  F003         	goto	i2l2472
  2675   00068C  EF5B  F003         	goto	i2l1740
  2676   000690                     i2l2472:
  2677                           
  2678                           ; Switch size 1, requested type "simple"
  2679                           ; Number of cases is 4, Range of values is 1 to 4
  2680                           ; switch strategies available:
  2681                           ; Name         Instructions Cycles
  2682                           ; simple_byte           13     7 (average)
  2683                           ;	Chosen strategy is simple_byte
  2684   000690  5027               	movf	??_I2C_Isr^0,w,c
  2685   000692  0A01               	xorlw	1	; case 1
  2686   000694  B4D8               	btfsc	status,2,c
  2687   000696  EF10  F003         	goto	i2l1720
  2688   00069A  0A03               	xorlw	3	; case 2
  2689   00069C  B4D8               	btfsc	status,2,c
  2690   00069E  EF20  F003         	goto	i2l1726
  2691   0006A2  0A01               	xorlw	1	; case 3
  2692   0006A4  B4D8               	btfsc	status,2,c
  2693   0006A6  EF24  F003         	goto	i2l1728
  2694   0006AA  0A07               	xorlw	7	; case 4
  2695   0006AC  B4D8               	btfsc	status,2,c
  2696   0006AE  EF30  F003         	goto	i2l1732
  2697   0006B2  EF5B  F003         	goto	i2l1740
  2698   0006B6                     i2l1740:
  2699                           
  2700                           ;mcc_generated_files/i2c_slave.c: 219:     I2C_SlaveReleaseClock();
  2701   0006B6  EC1E  F005         	call	_I2C_SlaveReleaseClock	;wreg free
  2702   0006BA  0012               	return		;funcret
  2703   0006BC                     __end_of_I2C_Isr:
  2704                           	callstack 0
  2705                           
  2706 ;; *************** function _I2C_SlaveWrCallBack *****************
  2707 ;; Defined at:
  2708 ;;		line 250 in file "mcc_generated_files/i2c_slave.c"
  2709 ;; Parameters:    Size  Location     Type
  2710 ;;		None
  2711 ;; Auto vars:     Size  Location     Type
  2712 ;;		None
  2713 ;; Return value:  Size  Location     Type
  2714 ;;                  1    wreg      void 
  2715 ;; Registers used:
  2716 ;;		wreg, status,2, status,0, pcl, pclath, pclatu, tosl, cstack
  2717 ;; Tracked objects:
  2718 ;;		On entry : 0/0
  2719 ;;		On exit  : 0/0
  2720 ;;		Unchanged: 0/0
  2721 ;; Data sizes:     COMRAM   BANK0   BANK1   BANK2   BANK3   BANK4   BANK5   BANK6   BANK7   BANK8   BANK9  BANK10  BANK1
      +1  BANK12  BANK13  BANK14  BANK15
  2722 ;;      Params:         0       0       0       0       0       0       0       0       0       0       0       0       
      +0       0       0       0       0
  2723 ;;      Locals:         0       0       0       0       0       0       0       0       0       0       0       0       
      +0       0       0       0       0
  2724 ;;      Temps:          0       0       0       0       0       0       0       0       0       0       0       0       
      +0       0       0       0       0
  2725 ;;      Totals:         0       0       0       0       0       0       0       0       0       0       0       0       
      +0       0       0       0       0
  2726 ;;Total ram usage:        0 bytes
  2727 ;; Hardware stack levels used: 1
  2728 ;; Hardware stack levels required when called: 2
  2729 ;; This function calls:
  2730 ;;		NULL
  2731 ;;		_I2C_SlaveDefWrInterruptHandler
  2732 ;; This function is called by:
  2733 ;;		_I2C_Isr
  2734 ;; This function uses a non-reentrant model
  2735 ;;
  2736                           
  2737                           	psect	text24
  2738   0007EE                     __ptext24:
  2739                           	callstack 0
  2740   0007EE                     _I2C_SlaveWrCallBack:
  2741                           	callstack 23
  2742   0007EE                     
  2743                           ;mcc_generated_files/i2c_slave.c: 252:     if (I2C_SlaveWrInterruptHandler)
  2744   0007EE  500B               	movf	_I2C_SlaveWrInterruptHandler^0,w,c
  2745   0007F0  100C               	iorwf	(_I2C_SlaveWrInterruptHandler+1)^0,w,c
  2746   0007F2  B4D8               	btfsc	status,2,c
  2747   0007F4  EFFE  F003         	goto	i2u8_41
  2748   0007F8  EF00  F004         	goto	i2u8_40
  2749   0007FC                     i2u8_41:
  2750   0007FC  EF0D  F004         	goto	i2l286
  2751   000800                     i2u8_40:
  2752   000800                     
  2753                           ;mcc_generated_files/i2c_slave.c: 253:     {;mcc_generated_files/i2c_slave.c: 254:      
      +                             I2C_SlaveWrInterruptHandler();
  2754   000800  D802               	call	i2u9_48
  2755   000802  EF0D  F004         	goto	i2u9_49
  2756   000806                     i2u9_48:
  2757   000806  0005               	push	
  2758   000808  6EFA               	movwf	pclath,c
  2759   00080A  500B               	movf	_I2C_SlaveWrInterruptHandler^0,w,c
  2760   00080C  6EFD               	movwf	tosl,c
  2761   00080E  500C               	movf	(_I2C_SlaveWrInterruptHandler+1)^0,w,c
  2762   000810  6EFE               	movwf	tosh,c
  2763   000812  50F8               	movf	tblptru,w,c
  2764   000814  6EFF               	movwf	tosu,c
  2765   000816  50FA               	movf	pclath,w,c
  2766   000818  0012               	return		;indir
  2767   00081A                     i2u9_49:
  2768   00081A                     i2l286:
  2769   00081A  0012               	return		;funcret
  2770   00081C                     __end_of_I2C_SlaveWrCallBack:
  2771                           	callstack 0
  2772                           
  2773 ;; *************** function _I2C_SlaveDefWrInterruptHandler *****************
  2774 ;; Defined at:
  2775 ;;		line 258 in file "mcc_generated_files/i2c_slave.c"
  2776 ;; Parameters:    Size  Location     Type
  2777 ;;		None
  2778 ;; Auto vars:     Size  Location     Type
  2779 ;;		None
  2780 ;; Return value:  Size  Location     Type
  2781 ;;                  1    wreg      void 
  2782 ;; Registers used:
  2783 ;;		wreg, status,2, cstack
  2784 ;; Tracked objects:
  2785 ;;		On entry : 0/0
  2786 ;;		On exit  : 0/0
  2787 ;;		Unchanged: 0/0
  2788 ;; Data sizes:     COMRAM   BANK0   BANK1   BANK2   BANK3   BANK4   BANK5   BANK6   BANK7   BANK8   BANK9  BANK10  BANK1
      +1  BANK12  BANK13  BANK14  BANK15
  2789 ;;      Params:         0       0       0       0       0       0       0       0       0       0       0       0       
      +0       0       0       0       0
  2790 ;;      Locals:         0       0       0       0       0       0       0       0       0       0       0       0       
      +0       0       0       0       0
  2791 ;;      Temps:          0       0       0       0       0       0       0       0       0       0       0       0       
      +0       0       0       0       0
  2792 ;;      Totals:         0       0       0       0       0       0       0       0       0       0       0       0       
      +0       0       0       0       0
  2793 ;;Total ram usage:        0 bytes
  2794 ;; Hardware stack levels used: 1
  2795 ;; Hardware stack levels required when called: 1
  2796 ;; This function calls:
  2797 ;;		_I2C_SlaveSendTxData
  2798 ;; This function is called by:
  2799 ;;		_I2C_Open
  2800 ;;		_I2C_SlaveWrCallBack
  2801 ;; This function uses a non-reentrant model
  2802 ;;
  2803                           
  2804                           	psect	text25
  2805   000A1C                     __ptext25:
  2806                           	callstack 0
  2807   000A1C                     _I2C_SlaveDefWrInterruptHandler:
  2808                           	callstack 23
  2809   000A1C                     
  2810                           ;mcc_generated_files/i2c_slave.c: 259:     I2C_SlaveSendTxData(i2cWrData);
  2811   000A1C  501A               	movf	_i2cWrData^0,w,c	;volatile
  2812   000A1E  EC12  F005         	call	_I2C_SlaveSendTxData
  2813   000A22  0012               	return		;funcret
  2814   000A24                     __end_of_I2C_SlaveDefWrInterruptHandler:
  2815                           	callstack 0
  2816                           
  2817 ;; *************** function _I2C_SlaveSendTxData *****************
  2818 ;; Defined at:
  2819 ;;		line 391 in file "mcc_generated_files/i2c_slave.c"
  2820 ;; Parameters:    Size  Location     Type
  2821 ;;  data            1    wreg     unsigned char 
  2822 ;; Auto vars:     Size  Location     Type
  2823 ;;  data            1    0[COMRAM] unsigned char 
  2824 ;; Return value:  Size  Location     Type
  2825 ;;                  1    wreg      void 
  2826 ;; Registers used:
  2827 ;;		wreg
  2828 ;; Tracked objects:
  2829 ;;		On entry : 0/0
  2830 ;;		On exit  : 0/0
  2831 ;;		Unchanged: 0/0
  2832 ;; Data sizes:     COMRAM   BANK0   BANK1   BANK2   BANK3   BANK4   BANK5   BANK6   BANK7   BANK8   BANK9  BANK10  BANK1
      +1  BANK12  BANK13  BANK14  BANK15
  2833 ;;      Params:         0       0       0       0       0       0       0       0       0       0       0       0       
      +0       0       0       0       0
  2834 ;;      Locals:         1       0       0       0       0       0       0       0       0       0       0       0       
      +0       0       0       0       0
  2835 ;;      Temps:          0       0       0       0       0       0       0       0       0       0       0       0       
      +0       0       0       0       0
  2836 ;;      Totals:         1       0       0       0       0       0       0       0       0       0       0       0       
      +0       0       0       0       0
  2837 ;;Total ram usage:        1 bytes
  2838 ;; Hardware stack levels used: 1
  2839 ;; This function calls:
  2840 ;;		Nothing
  2841 ;; This function is called by:
  2842 ;;		_I2C_SlaveDefWrInterruptHandler
  2843 ;;		_I2C_Write
  2844 ;; This function uses a non-reentrant model
  2845 ;;
  2846                           
  2847                           	psect	text26
  2848   000A24                     __ptext26:
  2849                           	callstack 0
  2850   000A24                     _I2C_SlaveSendTxData:
  2851                           	callstack 23
  2852                           
  2853                           ;incstack = 0
  2854                           ;I2C_SlaveSendTxData@data stored from wreg
  2855   000A24  6E26               	movwf	I2C_SlaveSendTxData@data^0,c
  2856   000A26                     
  2857                           ;mcc_generated_files/i2c_slave.c: 391: static __attribute__((inline)) void I2C_SlaveSend
      +                          TxData(uint8_t data);mcc_generated_files/i2c_slave.c: 392: {;mcc_generated_files/i2c_sla
      +                          ve.c: 393:     SSPBUF = data;
  2858   000A26  C026  FFC9         	movff	I2C_SlaveSendTxData@data,4041	;volatile
  2859   000A2A  0012               	return		;funcret
  2860   000A2C                     __end_of_I2C_SlaveSendTxData:
  2861                           	callstack 0
  2862                           
  2863 ;; *************** function _I2C_SlaveReleaseClock *****************
  2864 ;; Defined at:
  2865 ;;		line 361 in file "mcc_generated_files/i2c_slave.c"
  2866 ;; Parameters:    Size  Location     Type
  2867 ;;		None
  2868 ;; Auto vars:     Size  Location     Type
  2869 ;;		None
  2870 ;; Return value:  Size  Location     Type
  2871 ;;                  1    wreg      void 
  2872 ;; Registers used:
  2873 ;;		None
  2874 ;; Tracked objects:
  2875 ;;		On entry : 0/0
  2876 ;;		On exit  : 0/0
  2877 ;;		Unchanged: 0/0
  2878 ;; Data sizes:     COMRAM   BANK0   BANK1   BANK2   BANK3   BANK4   BANK5   BANK6   BANK7   BANK8   BANK9  BANK10  BANK1
      +1  BANK12  BANK13  BANK14  BANK15
  2879 ;;      Params:         0       0       0       0       0       0       0       0       0       0       0       0       
      +0       0       0       0       0
  2880 ;;      Locals:         0       0       0       0       0       0       0       0       0       0       0       0       
      +0       0       0       0       0
  2881 ;;      Temps:          0       0       0       0       0       0       0       0       0       0       0       0       
      +0       0       0       0       0
  2882 ;;      Totals:         0       0       0       0       0       0       0       0       0       0       0       0       
      +0       0       0       0       0
  2883 ;;Total ram usage:        0 bytes
  2884 ;; Hardware stack levels used: 1
  2885 ;; This function calls:
  2886 ;;		Nothing
  2887 ;; This function is called by:
  2888 ;;		_I2C_Isr
  2889 ;; This function uses a non-reentrant model
  2890 ;;
  2891                           
  2892                           	psect	text27
  2893   000A3C                     __ptext27:
  2894                           	callstack 0
  2895   000A3C                     _I2C_SlaveReleaseClock:
  2896                           	callstack 25
  2897   000A3C                     
  2898                           ;mcc_generated_files/i2c_slave.c: 363:     SSPCON1bits.CKP = 1;
  2899   000A3C  88C6               	bsf	198,4,c	;volatile
  2900   000A3E  0012               	return		;funcret
  2901   000A40                     __end_of_I2C_SlaveReleaseClock:
  2902                           	callstack 0
  2903                           
  2904 ;; *************** function _I2C_SlaveRdCallBack *****************
  2905 ;; Defined at:
  2906 ;;		line 233 in file "mcc_generated_files/i2c_slave.c"
  2907 ;; Parameters:    Size  Location     Type
  2908 ;;		None
  2909 ;; Auto vars:     Size  Location     Type
  2910 ;;		None
  2911 ;; Return value:  Size  Location     Type
  2912 ;;                  1    wreg      void 
  2913 ;; Registers used:
  2914 ;;		wreg, status,2, status,0, pcl, pclath, pclatu, tosl, cstack
  2915 ;; Tracked objects:
  2916 ;;		On entry : 0/0
  2917 ;;		On exit  : 0/0
  2918 ;;		Unchanged: 0/0
  2919 ;; Data sizes:     COMRAM   BANK0   BANK1   BANK2   BANK3   BANK4   BANK5   BANK6   BANK7   BANK8   BANK9  BANK10  BANK1
      +1  BANK12  BANK13  BANK14  BANK15
  2920 ;;      Params:         0       0       0       0       0       0       0       0       0       0       0       0       
      +0       0       0       0       0
  2921 ;;      Locals:         0       0       0       0       0       0       0       0       0       0       0       0       
      +0       0       0       0       0
  2922 ;;      Temps:          0       0       0       0       0       0       0       0       0       0       0       0       
      +0       0       0       0       0
  2923 ;;      Totals:         0       0       0       0       0       0       0       0       0       0       0       0       
      +0       0       0       0       0
  2924 ;;Total ram usage:        0 bytes
  2925 ;; Hardware stack levels used: 1
  2926 ;; Hardware stack levels required when called: 2
  2927 ;; This function calls:
  2928 ;;		NULL
  2929 ;;		_I2C_SlaveDefRdInterruptHandler
  2930 ;; This function is called by:
  2931 ;;		_I2C_Isr
  2932 ;; This function uses a non-reentrant model
  2933 ;;
  2934                           
  2935                           	psect	text28
  2936   00081C                     __ptext28:
  2937                           	callstack 0
  2938   00081C                     _I2C_SlaveRdCallBack:
  2939                           	callstack 23
  2940   00081C                     
  2941                           ;mcc_generated_files/i2c_slave.c: 235:     if (I2C_SlaveRdInterruptHandler)
  2942   00081C  500D               	movf	_I2C_SlaveRdInterruptHandler^0,w,c
  2943   00081E  100E               	iorwf	(_I2C_SlaveRdInterruptHandler+1)^0,w,c
  2944   000820  B4D8               	btfsc	status,2,c
  2945   000822  EF15  F004         	goto	i2u11_41
  2946   000826  EF17  F004         	goto	i2u11_40
  2947   00082A                     i2u11_41:
  2948   00082A  EF24  F004         	goto	i2l276
  2949   00082E                     i2u11_40:
  2950   00082E                     
  2951                           ;mcc_generated_files/i2c_slave.c: 236:     {;mcc_generated_files/i2c_slave.c: 237:      
      +                             I2C_SlaveRdInterruptHandler();
  2952   00082E  D802               	call	i2u12_48
  2953   000830  EF24  F004         	goto	i2u12_49
  2954   000834                     i2u12_48:
  2955   000834  0005               	push	
  2956   000836  6EFA               	movwf	pclath,c
  2957   000838  500D               	movf	_I2C_SlaveRdInterruptHandler^0,w,c
  2958   00083A  6EFD               	movwf	tosl,c
  2959   00083C  500E               	movf	(_I2C_SlaveRdInterruptHandler+1)^0,w,c
  2960   00083E  6EFE               	movwf	tosh,c
  2961   000840  50F8               	movf	tblptru,w,c
  2962   000842  6EFF               	movwf	tosu,c
  2963   000844  50FA               	movf	pclath,w,c
  2964   000846  0012               	return		;indir
  2965   000848                     i2u12_49:
  2966   000848                     i2l276:
  2967   000848  0012               	return		;funcret
  2968   00084A                     __end_of_I2C_SlaveRdCallBack:
  2969                           	callstack 0
  2970                           
  2971 ;; *************** function _I2C_SlaveDefRdInterruptHandler *****************
  2972 ;; Defined at:
  2973 ;;		line 241 in file "mcc_generated_files/i2c_slave.c"
  2974 ;; Parameters:    Size  Location     Type
  2975 ;;		None
  2976 ;; Auto vars:     Size  Location     Type
  2977 ;;		None
  2978 ;; Return value:  Size  Location     Type
  2979 ;;                  1    wreg      void 
  2980 ;; Registers used:
  2981 ;;		wreg, status,2, cstack
  2982 ;; Tracked objects:
  2983 ;;		On entry : 0/0
  2984 ;;		On exit  : 0/0
  2985 ;;		Unchanged: 0/0
  2986 ;; Data sizes:     COMRAM   BANK0   BANK1   BANK2   BANK3   BANK4   BANK5   BANK6   BANK7   BANK8   BANK9  BANK10  BANK1
      +1  BANK12  BANK13  BANK14  BANK15
  2987 ;;      Params:         0       0       0       0       0       0       0       0       0       0       0       0       
      +0       0       0       0       0
  2988 ;;      Locals:         0       0       0       0       0       0       0       0       0       0       0       0       
      +0       0       0       0       0
  2989 ;;      Temps:          0       0       0       0       0       0       0       0       0       0       0       0       
      +0       0       0       0       0
  2990 ;;      Totals:         0       0       0       0       0       0       0       0       0       0       0       0       
      +0       0       0       0       0
  2991 ;;Total ram usage:        0 bytes
  2992 ;; Hardware stack levels used: 1
  2993 ;; Hardware stack levels required when called: 1
  2994 ;; This function calls:
  2995 ;;		_I2C_SlaveGetRxData
  2996 ;; This function is called by:
  2997 ;;		_I2C_Open
  2998 ;;		_I2C_SlaveRdCallBack
  2999 ;; This function uses a non-reentrant model
  3000 ;;
  3001                           
  3002                           	psect	text29
  3003   000A2C                     __ptext29:
  3004                           	callstack 0
  3005   000A2C                     _I2C_SlaveDefRdInterruptHandler:
  3006                           	callstack 23
  3007   000A2C                     
  3008                           ;mcc_generated_files/i2c_slave.c: 242:     i2cRdData = I2C_SlaveGetRxData();
  3009   000A2C  EC22  F005         	call	_I2C_SlaveGetRxData	;wreg free
  3010   000A30  6E19               	movwf	_i2cRdData^0,c	;volatile
  3011   000A32  0012               	return		;funcret
  3012   000A34                     __end_of_I2C_SlaveDefRdInterruptHandler:
  3013                           	callstack 0
  3014                           
  3015 ;; *************** function _I2C_SlaveIsTxBufEmpty *****************
  3016 ;; Defined at:
  3017 ;;		line 381 in file "mcc_generated_files/i2c_slave.c"
  3018 ;; Parameters:    Size  Location     Type
  3019 ;;		None
  3020 ;; Auto vars:     Size  Location     Type
  3021 ;;		None
  3022 ;; Return value:  Size  Location     Type
  3023 ;;                  1    wreg      _Bool 
  3024 ;; Registers used:
  3025 ;;		wreg
  3026 ;; Tracked objects:
  3027 ;;		On entry : 0/0
  3028 ;;		On exit  : 0/0
  3029 ;;		Unchanged: 0/0
  3030 ;; Data sizes:     COMRAM   BANK0   BANK1   BANK2   BANK3   BANK4   BANK5   BANK6   BANK7   BANK8   BANK9  BANK10  BANK1
      +1  BANK12  BANK13  BANK14  BANK15
  3031 ;;      Params:         0       0       0       0       0       0       0       0       0       0       0       0       
      +0       0       0       0       0
  3032 ;;      Locals:         0       0       0       0       0       0       0       0       0       0       0       0       
      +0       0       0       0       0
  3033 ;;      Temps:          0       0       0       0       0       0       0       0       0       0       0       0       
      +0       0       0       0       0
  3034 ;;      Totals:         0       0       0       0       0       0       0       0       0       0       0       0       
      +0       0       0       0       0
  3035 ;;Total ram usage:        0 bytes
  3036 ;; Hardware stack levels used: 1
  3037 ;; This function calls:
  3038 ;;		Nothing
  3039 ;; This function is called by:
  3040 ;;		_I2C_Isr
  3041 ;; This function uses a non-reentrant model
  3042 ;;
  3043                           
  3044                           	psect	text30
  3045   000974                     __ptext30:
  3046                           	callstack 0
  3047   000974                     _I2C_SlaveIsTxBufEmpty:
  3048                           	callstack 25
  3049   000974                     
  3050                           ;mcc_generated_files/i2c_slave.c: 383:     return !SSPSTATbits.BF;
  3051   000974  A0C7               	btfss	199,0,c	;volatile
  3052   000976  EFBF  F004         	goto	i2u6_41
  3053   00097A  EFC2  F004         	goto	i2u6_40
  3054   00097E                     i2u6_41:
  3055   00097E  0E01               	movlw	1
  3056   000980  EFC3  F004         	goto	i2u7_40
  3057   000984                     i2u6_40:
  3058   000984  0E00               	movlw	0
  3059   000986                     i2u7_40:
  3060   000986  0012               	return		;funcret
  3061   000988                     __end_of_I2C_SlaveIsTxBufEmpty:
  3062                           	callstack 0
  3063                           
  3064 ;; *************** function _I2C_SlaveIsRxBufFull *****************
  3065 ;; Defined at:
  3066 ;;		line 386 in file "mcc_generated_files/i2c_slave.c"
  3067 ;; Parameters:    Size  Location     Type
  3068 ;;		None
  3069 ;; Auto vars:     Size  Location     Type
  3070 ;;		None
  3071 ;; Return value:  Size  Location     Type
  3072 ;;                  1    wreg      _Bool 
  3073 ;; Registers used:
  3074 ;;		wreg
  3075 ;; Tracked objects:
  3076 ;;		On entry : 0/0
  3077 ;;		On exit  : 0/0
  3078 ;;		Unchanged: 0/0
  3079 ;; Data sizes:     COMRAM   BANK0   BANK1   BANK2   BANK3   BANK4   BANK5   BANK6   BANK7   BANK8   BANK9  BANK10  BANK1
      +1  BANK12  BANK13  BANK14  BANK15
  3080 ;;      Params:         0       0       0       0       0       0       0       0       0       0       0       0       
      +0       0       0       0       0
  3081 ;;      Locals:         0       0       0       0       0       0       0       0       0       0       0       0       
      +0       0       0       0       0
  3082 ;;      Temps:          0       0       0       0       0       0       0       0       0       0       0       0       
      +0       0       0       0       0
  3083 ;;      Totals:         0       0       0       0       0       0       0       0       0       0       0       0       
      +0       0       0       0       0
  3084 ;;Total ram usage:        0 bytes
  3085 ;; Hardware stack levels used: 1
  3086 ;; This function calls:
  3087 ;;		Nothing
  3088 ;; This function is called by:
  3089 ;;		_I2C_Isr
  3090 ;; This function uses a non-reentrant model
  3091 ;;
  3092                           
  3093                           	psect	text31
  3094   000988                     __ptext31:
  3095                           	callstack 0
  3096   000988                     _I2C_SlaveIsRxBufFull:
  3097                           	callstack 25
  3098   000988                     
  3099                           ;mcc_generated_files/i2c_slave.c: 388:     return SSPSTATbits.BF;
  3100   000988  B0C7               	btfsc	199,0,c	;volatile
  3101   00098A  EFC9  F004         	goto	i2u10_41
  3102   00098E  EFCC  F004         	goto	i2u10_40
  3103   000992                     i2u10_41:
  3104   000992  0E01               	movlw	1
  3105   000994  EFCD  F004         	goto	i2u10_46
  3106   000998                     i2u10_40:
  3107   000998  0E00               	movlw	0
  3108   00099A                     i2u10_46:
  3109   00099A  0012               	return		;funcret
  3110   00099C                     __end_of_I2C_SlaveIsRxBufFull:
  3111                           	callstack 0
  3112                           
  3113 ;; *************** function _I2C_SlaveIsRead *****************
  3114 ;; Defined at:
  3115 ;;		line 351 in file "mcc_generated_files/i2c_slave.c"
  3116 ;; Parameters:    Size  Location     Type
  3117 ;;		None
  3118 ;; Auto vars:     Size  Location     Type
  3119 ;;		None
  3120 ;; Return value:  Size  Location     Type
  3121 ;;                  1    wreg      _Bool 
  3122 ;; Registers used:
  3123 ;;		wreg
  3124 ;; Tracked objects:
  3125 ;;		On entry : 0/0
  3126 ;;		On exit  : 0/0
  3127 ;;		Unchanged: 0/0
  3128 ;; Data sizes:     COMRAM   BANK0   BANK1   BANK2   BANK3   BANK4   BANK5   BANK6   BANK7   BANK8   BANK9  BANK10  BANK1
      +1  BANK12  BANK13  BANK14  BANK15
  3129 ;;      Params:         0       0       0       0       0       0       0       0       0       0       0       0       
      +0       0       0       0       0
  3130 ;;      Locals:         0       0       0       0       0       0       0       0       0       0       0       0       
      +0       0       0       0       0
  3131 ;;      Temps:          0       0       0       0       0       0       0       0       0       0       0       0       
      +0       0       0       0       0
  3132 ;;      Totals:         0       0       0       0       0       0       0       0       0       0       0       0       
      +0       0       0       0       0
  3133 ;;Total ram usage:        0 bytes
  3134 ;; Hardware stack levels used: 1
  3135 ;; This function calls:
  3136 ;;		Nothing
  3137 ;; This function is called by:
  3138 ;;		_I2C_Isr
  3139 ;;		_I2C_IsRead
  3140 ;; This function uses a non-reentrant model
  3141 ;;
  3142                           
  3143                           	psect	text32
  3144   00099C                     __ptext32:
  3145                           	callstack 0
  3146   00099C                     _I2C_SlaveIsRead:
  3147                           	callstack 25
  3148   00099C                     
  3149                           ;mcc_generated_files/i2c_slave.c: 353:     return (SSPSTATbits.R_nW);
  3150   00099C  B4C7               	btfsc	199,2,c	;volatile
  3151   00099E  EFD3  F004         	goto	i2u1_41
  3152   0009A2  EFD6  F004         	goto	i2u1_40
  3153   0009A6                     i2u1_41:
  3154   0009A6  0E01               	movlw	1
  3155   0009A8  EFD7  F004         	goto	i2u1_46
  3156   0009AC                     i2u1_40:
  3157   0009AC  0E00               	movlw	0
  3158   0009AE                     i2u1_46:
  3159   0009AE  0012               	return		;funcret
  3160   0009B0                     __end_of_I2C_SlaveIsRead:
  3161                           	callstack 0
  3162                           
  3163 ;; *************** function _I2C_SlaveIsAddr *****************
  3164 ;; Defined at:
  3165 ;;		line 346 in file "mcc_generated_files/i2c_slave.c"
  3166 ;; Parameters:    Size  Location     Type
  3167 ;;		None
  3168 ;; Auto vars:     Size  Location     Type
  3169 ;;		None
  3170 ;; Return value:  Size  Location     Type
  3171 ;;                  1    wreg      _Bool 
  3172 ;; Registers used:
  3173 ;;		wreg
  3174 ;; Tracked objects:
  3175 ;;		On entry : 0/0
  3176 ;;		On exit  : 0/0
  3177 ;;		Unchanged: 0/0
  3178 ;; Data sizes:     COMRAM   BANK0   BANK1   BANK2   BANK3   BANK4   BANK5   BANK6   BANK7   BANK8   BANK9  BANK10  BANK1
      +1  BANK12  BANK13  BANK14  BANK15
  3179 ;;      Params:         0       0       0       0       0       0       0       0       0       0       0       0       
      +0       0       0       0       0
  3180 ;;      Locals:         0       0       0       0       0       0       0       0       0       0       0       0       
      +0       0       0       0       0
  3181 ;;      Temps:          0       0       0       0       0       0       0       0       0       0       0       0       
      +0       0       0       0       0
  3182 ;;      Totals:         0       0       0       0       0       0       0       0       0       0       0       0       
      +0       0       0       0       0
  3183 ;;Total ram usage:        0 bytes
  3184 ;; Hardware stack levels used: 1
  3185 ;; This function calls:
  3186 ;;		Nothing
  3187 ;; This function is called by:
  3188 ;;		_I2C_Isr
  3189 ;; This function uses a non-reentrant model
  3190 ;;
  3191                           
  3192                           	psect	text33
  3193   0009B0                     __ptext33:
  3194                           	callstack 0
  3195   0009B0                     _I2C_SlaveIsAddr:
  3196                           	callstack 25
  3197   0009B0                     
  3198                           ;mcc_generated_files/i2c_slave.c: 348:     return !(SSPSTATbits.D_nA);
  3199   0009B0  AAC7               	btfss	199,5,c	;volatile
  3200   0009B2  EFDD  F004         	goto	i2u2_41
  3201   0009B6  EFE0  F004         	goto	i2u2_40
  3202   0009BA                     i2u2_41:
  3203   0009BA  0E01               	movlw	1
  3204   0009BC  EFE1  F004         	goto	i2u3_40
  3205   0009C0                     i2u2_40:
  3206   0009C0  0E00               	movlw	0
  3207   0009C2                     i2u3_40:
  3208   0009C2  0012               	return		;funcret
  3209   0009C4                     __end_of_I2C_SlaveIsAddr:
  3210                           	callstack 0
  3211                           
  3212 ;; *************** function _I2C_SlaveClearIrq *****************
  3213 ;; Defined at:
  3214 ;;		line 356 in file "mcc_generated_files/i2c_slave.c"
  3215 ;; Parameters:    Size  Location     Type
  3216 ;;		None
  3217 ;; Auto vars:     Size  Location     Type
  3218 ;;		None
  3219 ;; Return value:  Size  Location     Type
  3220 ;;                  1    wreg      void 
  3221 ;; Registers used:
  3222 ;;		None
  3223 ;; Tracked objects:
  3224 ;;		On entry : 0/0
  3225 ;;		On exit  : 0/0
  3226 ;;		Unchanged: 0/0
  3227 ;; Data sizes:     COMRAM   BANK0   BANK1   BANK2   BANK3   BANK4   BANK5   BANK6   BANK7   BANK8   BANK9  BANK10  BANK1
      +1  BANK12  BANK13  BANK14  BANK15
  3228 ;;      Params:         0       0       0       0       0       0       0       0       0       0       0       0       
      +0       0       0       0       0
  3229 ;;      Locals:         0       0       0       0       0       0       0       0       0       0       0       0       
      +0       0       0       0       0
  3230 ;;      Temps:          0       0       0       0       0       0       0       0       0       0       0       0       
      +0       0       0       0       0
  3231 ;;      Totals:         0       0       0       0       0       0       0       0       0       0       0       0       
      +0       0       0       0       0
  3232 ;;Total ram usage:        0 bytes
  3233 ;; Hardware stack levels used: 1
  3234 ;; This function calls:
  3235 ;;		Nothing
  3236 ;; This function is called by:
  3237 ;;		_I2C_Isr
  3238 ;; This function uses a non-reentrant model
  3239 ;;
  3240                           
  3241                           	psect	text34
  3242   000A40                     __ptext34:
  3243                           	callstack 0
  3244   000A40                     _I2C_SlaveClearIrq:
  3245                           	callstack 25
  3246   000A40                     
  3247                           ;mcc_generated_files/i2c_slave.c: 358:     PIR1bits.SSPIF = 0;
  3248   000A40  969E               	bcf	158,3,c	;volatile
  3249   000A42  0012               	return		;funcret
  3250   000A44                     __end_of_I2C_SlaveClearIrq:
  3251                           	callstack 0
  3252                           
  3253 ;; *************** function _I2C_SlaveAddrCallBack *****************
  3254 ;; Defined at:
  3255 ;;		line 267 in file "mcc_generated_files/i2c_slave.c"
  3256 ;; Parameters:    Size  Location     Type
  3257 ;;		None
  3258 ;; Auto vars:     Size  Location     Type
  3259 ;;		None
  3260 ;; Return value:  Size  Location     Type
  3261 ;;                  1    wreg      void 
  3262 ;; Registers used:
  3263 ;;		wreg, status,2, status,0, pcl, pclath, pclatu, tosl, cstack
  3264 ;; Tracked objects:
  3265 ;;		On entry : 0/0
  3266 ;;		On exit  : 0/0
  3267 ;;		Unchanged: 0/0
  3268 ;; Data sizes:     COMRAM   BANK0   BANK1   BANK2   BANK3   BANK4   BANK5   BANK6   BANK7   BANK8   BANK9  BANK10  BANK1
      +1  BANK12  BANK13  BANK14  BANK15
  3269 ;;      Params:         0       0       0       0       0       0       0       0       0       0       0       0       
      +0       0       0       0       0
  3270 ;;      Locals:         0       0       0       0       0       0       0       0       0       0       0       0       
      +0       0       0       0       0
  3271 ;;      Temps:          0       0       0       0       0       0       0       0       0       0       0       0       
      +0       0       0       0       0
  3272 ;;      Totals:         0       0       0       0       0       0       0       0       0       0       0       0       
      +0       0       0       0       0
  3273 ;;Total ram usage:        0 bytes
  3274 ;; Hardware stack levels used: 1
  3275 ;; Hardware stack levels required when called: 2
  3276 ;; This function calls:
  3277 ;;		NULL
  3278 ;;		_I2C_SlaveDefAddrInterruptHandler
  3279 ;; This function is called by:
  3280 ;;		_I2C_Isr
  3281 ;; This function uses a non-reentrant model
  3282 ;;
  3283                           
  3284                           	psect	text35
  3285   00084A                     __ptext35:
  3286                           	callstack 0
  3287   00084A                     _I2C_SlaveAddrCallBack:
  3288                           	callstack 23
  3289   00084A                     
  3290                           ;mcc_generated_files/i2c_slave.c: 269:     if (I2C_SlaveAddrInterruptHandler) {
  3291   00084A  5009               	movf	_I2C_SlaveAddrInterruptHandler^0,w,c
  3292   00084C  100A               	iorwf	(_I2C_SlaveAddrInterruptHandler+1)^0,w,c
  3293   00084E  B4D8               	btfsc	status,2,c
  3294   000850  EF2C  F004         	goto	i2u4_41
  3295   000854  EF2E  F004         	goto	i2u4_40
  3296   000858                     i2u4_41:
  3297   000858  EF3B  F004         	goto	i2l296
  3298   00085C                     i2u4_40:
  3299   00085C                     
  3300                           ;mcc_generated_files/i2c_slave.c: 270:         I2C_SlaveAddrInterruptHandler();
  3301   00085C  D802               	call	i2u5_48
  3302   00085E  EF3B  F004         	goto	i2u5_49
  3303   000862                     i2u5_48:
  3304   000862  0005               	push	
  3305   000864  6EFA               	movwf	pclath,c
  3306   000866  5009               	movf	_I2C_SlaveAddrInterruptHandler^0,w,c
  3307   000868  6EFD               	movwf	tosl,c
  3308   00086A  500A               	movf	(_I2C_SlaveAddrInterruptHandler+1)^0,w,c
  3309   00086C  6EFE               	movwf	tosh,c
  3310   00086E  50F8               	movf	tblptru,w,c
  3311   000870  6EFF               	movwf	tosu,c
  3312   000872  50FA               	movf	pclath,w,c
  3313   000874  0012               	return		;indir
  3314   000876                     i2u5_49:
  3315   000876                     i2l296:
  3316   000876  0012               	return		;funcret
  3317   000878                     __end_of_I2C_SlaveAddrCallBack:
  3318                           	callstack 0
  3319                           
  3320 ;; *************** function _I2C_SlaveDefAddrInterruptHandler *****************
  3321 ;; Defined at:
  3322 ;;		line 274 in file "mcc_generated_files/i2c_slave.c"
  3323 ;; Parameters:    Size  Location     Type
  3324 ;;		None
  3325 ;; Auto vars:     Size  Location     Type
  3326 ;;		None
  3327 ;; Return value:  Size  Location     Type
  3328 ;;                  1    wreg      void 
  3329 ;; Registers used:
  3330 ;;		wreg, status,2, cstack
  3331 ;; Tracked objects:
  3332 ;;		On entry : 0/0
  3333 ;;		On exit  : 0/0
  3334 ;;		Unchanged: 0/0
  3335 ;; Data sizes:     COMRAM   BANK0   BANK1   BANK2   BANK3   BANK4   BANK5   BANK6   BANK7   BANK8   BANK9  BANK10  BANK1
      +1  BANK12  BANK13  BANK14  BANK15
  3336 ;;      Params:         0       0       0       0       0       0       0       0       0       0       0       0       
      +0       0       0       0       0
  3337 ;;      Locals:         0       0       0       0       0       0       0       0       0       0       0       0       
      +0       0       0       0       0
  3338 ;;      Temps:          0       0       0       0       0       0       0       0       0       0       0       0       
      +0       0       0       0       0
  3339 ;;      Totals:         0       0       0       0       0       0       0       0       0       0       0       0       
      +0       0       0       0       0
  3340 ;;Total ram usage:        0 bytes
  3341 ;; Hardware stack levels used: 1
  3342 ;; Hardware stack levels required when called: 1
  3343 ;; This function calls:
  3344 ;;		_I2C_SlaveGetRxData
  3345 ;; This function is called by:
  3346 ;;		_I2C_Open
  3347 ;;		_I2C_SlaveAddrCallBack
  3348 ;; This function uses a non-reentrant model
  3349 ;;
  3350                           
  3351                           	psect	text36
  3352   000A34                     __ptext36:
  3353                           	callstack 0
  3354   000A34                     _I2C_SlaveDefAddrInterruptHandler:
  3355                           	callstack 23
  3356   000A34                     
  3357                           ;mcc_generated_files/i2c_slave.c: 275:     i2cSlaveAddr = I2C_SlaveGetRxData();
  3358   000A34  EC22  F005         	call	_I2C_SlaveGetRxData	;wreg free
  3359   000A38  6E18               	movwf	_i2cSlaveAddr^0,c	;volatile
  3360   000A3A  0012               	return		;funcret
  3361   000A3C                     __end_of_I2C_SlaveDefAddrInterruptHandler:
  3362                           	callstack 0
  3363                           
  3364 ;; *************** function _I2C_SlaveGetRxData *****************
  3365 ;; Defined at:
  3366 ;;		line 396 in file "mcc_generated_files/i2c_slave.c"
  3367 ;; Parameters:    Size  Location     Type
  3368 ;;		None
  3369 ;; Auto vars:     Size  Location     Type
  3370 ;;		None
  3371 ;; Return value:  Size  Location     Type
  3372 ;;                  1    wreg      unsigned char 
  3373 ;; Registers used:
  3374 ;;		wreg, status,2
  3375 ;; Tracked objects:
  3376 ;;		On entry : 0/0
  3377 ;;		On exit  : 0/0
  3378 ;;		Unchanged: 0/0
  3379 ;; Data sizes:     COMRAM   BANK0   BANK1   BANK2   BANK3   BANK4   BANK5   BANK6   BANK7   BANK8   BANK9  BANK10  BANK1
      +1  BANK12  BANK13  BANK14  BANK15
  3380 ;;      Params:         0       0       0       0       0       0       0       0       0       0       0       0       
      +0       0       0       0       0
  3381 ;;      Locals:         0       0       0       0       0       0       0       0       0       0       0       0       
      +0       0       0       0       0
  3382 ;;      Temps:          0       0       0       0       0       0       0       0       0       0       0       0       
      +0       0       0       0       0
  3383 ;;      Totals:         0       0       0       0       0       0       0       0       0       0       0       0       
      +0       0       0       0       0
  3384 ;;Total ram usage:        0 bytes
  3385 ;; Hardware stack levels used: 1
  3386 ;; This function calls:
  3387 ;;		Nothing
  3388 ;; This function is called by:
  3389 ;;		_I2C_SlaveDefRdInterruptHandler
  3390 ;;		_I2C_SlaveDefAddrInterruptHandler
  3391 ;;		_I2C_Read
  3392 ;; This function uses a non-reentrant model
  3393 ;;
  3394                           
  3395                           	psect	text37
  3396   000A44                     __ptext37:
  3397                           	callstack 0
  3398   000A44                     _I2C_SlaveGetRxData:
  3399                           	callstack 23
  3400   000A44                     
  3401                           ;mcc_generated_files/i2c_slave.c: 398:     return SSPBUF;
  3402   000A44  50C9               	movf	201,w,c	;volatile
  3403   000A46  0012               	return		;funcret
  3404   000A48                     __end_of_I2C_SlaveGetRxData:
  3405                           	callstack 0
  3406   000000                     
  3407                           	psect	text38
  3408   000000                     __ptext38:
  3409                           	callstack 0
  3410   000000                     
  3411                           	psect	rparam
  3412   000000                     
  3413                           	psect	temp
  3414   000031                     btemp:
  3415                           	callstack 0
  3416   000031                     	ds	1
  3417   000000                     int$flags	set	btemp
  3418   000000                     wtemp8	set	btemp+1
  3419   000000                     ttemp5	set	btemp+1
  3420   000000                     ttemp6	set	btemp+4
  3421   000000                     ttemp7	set	btemp+8
  3422                           
  3423                           	psect	idloc
  3424                           
  3425                           ;Config register IDLOC0 @ 0x200000
  3426                           ;	unspecified, using default values
  3427   200000                     	org	2097152
  3428   200000  FF                 	db	255
  3429                           
  3430                           ;Config register IDLOC1 @ 0x200001
  3431                           ;	unspecified, using default values
  3432   200001                     	org	2097153
  3433   200001  FF                 	db	255
  3434                           
  3435                           ;Config register IDLOC2 @ 0x200002
  3436                           ;	unspecified, using default values
  3437   200002                     	org	2097154
  3438   200002  FF                 	db	255
  3439                           
  3440                           ;Config register IDLOC3 @ 0x200003
  3441                           ;	unspecified, using default values
  3442   200003                     	org	2097155
  3443   200003  FF                 	db	255
  3444                           
  3445                           ;Config register IDLOC4 @ 0x200004
  3446                           ;	unspecified, using default values
  3447   200004                     	org	2097156
  3448   200004  FF                 	db	255
  3449                           
  3450                           ;Config register IDLOC5 @ 0x200005
  3451                           ;	unspecified, using default values
  3452   200005                     	org	2097157
  3453   200005  FF                 	db	255
  3454                           
  3455                           ;Config register IDLOC6 @ 0x200006
  3456                           ;	unspecified, using default values
  3457   200006                     	org	2097158
  3458   200006  FF                 	db	255
  3459                           
  3460                           ;Config register IDLOC7 @ 0x200007
  3461                           ;	unspecified, using default values
  3462   200007                     	org	2097159
  3463   200007  FF                 	db	255
  3464                           
  3465                           	psect	config
  3466                           
  3467                           ; Padding undefined space
  3468   300000                     	org	3145728
  3469   300000  FF                 	db	255
  3470                           
  3471                           ;Config register CONFIG1H @ 0x300001
  3472                           ;	Oscillator Selection bits
  3473                           ;	FOSC = HS, HS oscillator
  3474                           ;	Fail-Safe Clock Monitor Enable bit
  3475                           ;	FCMEN = OFF, Fail-Safe Clock Monitor disabled
  3476                           ;	Internal/External Oscillator Switchover bit
  3477                           ;	IESO = OFF, Oscillator Switchover mode disabled
  3478   300001                     	org	3145729
  3479   300001  02                 	db	2
  3480                           
  3481                           ;Config register CONFIG2L @ 0x300002
  3482                           ;	Power-up Timer Enable bit
  3483                           ;	PWRT = OFF, PWRT disabled
  3484                           ;	Brown-out Reset Enable bits
  3485                           ;	BOREN = SBORDIS, Brown-out Reset enabled in hardware only (SBOREN is disabled)
  3486                           ;	Brown Out Reset Voltage bits
  3487                           ;	BORV = 18, VBOR set to 1.8 V nominal
  3488   300002                     	org	3145730
  3489   300002  1F                 	db	31
  3490                           
  3491                           ;Config register CONFIG2H @ 0x300003
  3492                           ;	Watchdog Timer Enable bit
  3493                           ;	WDTEN = OFF, WDT is controlled by SWDTEN bit of the WDTCON register
  3494                           ;	Watchdog Timer Postscale Select bits
  3495                           ;	WDTPS = 32768, 1:32768
  3496   300003                     	org	3145731
  3497   300003  1E                 	db	30
  3498                           
  3499                           ; Padding undefined space
  3500   300004                     	org	3145732
  3501   300004  FF                 	db	255
  3502                           
  3503                           ;Config register CONFIG3H @ 0x300005
  3504                           ;	CCP2 MUX bit
  3505                           ;	CCP2MX = PORTC, CCP2 input/output is multiplexed with RC1
  3506                           ;	PORTB A/D Enable bit
  3507                           ;	PBADEN = ON, PORTB<4:0> pins are configured as analog input channels on Reset
  3508                           ;	Low-Power Timer1 Oscillator Enable bit
  3509                           ;	LPT1OSC = OFF, Timer1 configured for higher power operation
  3510                           ;	HFINTOSC Fast Start-up
  3511                           ;	HFOFST = ON, HFINTOSC starts clocking the CPU without waiting for the oscillator to st
      +                          ablize.
  3512                           ;	MCLR Pin Enable bit
  3513                           ;	MCLRE = ON, MCLR pin enabled; RE3 input pin disabled
  3514   300005                     	org	3145733
  3515   300005  8B                 	db	139
  3516                           
  3517                           ;Config register CONFIG4L @ 0x300006
  3518                           ;	Stack Full/Underflow Reset Enable bit
  3519                           ;	STVREN = ON, Stack full/underflow will cause Reset
  3520                           ;	Single-Supply ICSP Enable bit
  3521                           ;	LVP = ON, Single-Supply ICSP enabled
  3522                           ;	Extended Instruction Set Enable bit
  3523                           ;	XINST = OFF, Instruction set extension and Indexed Addressing mode disabled (Legacy mo
      +                          de)
  3524                           ;	Background Debugger Enable bit
  3525                           ;	DEBUG = OFF, Background debugger disabled, RB6 and RB7 configured as general purpose I
      +                          /O pins
  3526   300006                     	org	3145734
  3527   300006  85                 	db	133
  3528                           
  3529                           ; Padding undefined space
  3530   300007                     	org	3145735
  3531   300007  FF                 	db	255
  3532                           
  3533                           ;Config register CONFIG5L @ 0x300008
  3534                           ;	Code Protection Block 0
  3535                           ;	CP0 = OFF, Block 0 (000800-003FFFh) not code-protected
  3536                           ;	Code Protection Block 1
  3537                           ;	CP1 = OFF, Block 1 (004000-007FFFh) not code-protected
  3538                           ;	Code Protection Block 2
  3539                           ;	CP2 = OFF, Block 2 (008000-00BFFFh) not code-protected
  3540                           ;	Code Protection Block 3
  3541                           ;	CP3 = OFF, Block 3 (00C000-00FFFFh) not code-protected
  3542   300008                     	org	3145736
  3543   300008  0F                 	db	15
  3544                           
  3545                           ;Config register CONFIG5H @ 0x300009
  3546                           ;	Boot Block Code Protection bit
  3547                           ;	CPB = OFF, Boot block (000000-0007FFh) not code-protected
  3548                           ;	Data EEPROM Code Protection bit
  3549                           ;	CPD = OFF, Data EEPROM not code-protected
  3550   300009                     	org	3145737
  3551   300009  C0                 	db	192
  3552                           
  3553                           ;Config register CONFIG6L @ 0x30000A
  3554                           ;	Write Protection Block 0
  3555                           ;	WRT0 = OFF, Block 0 (000800-003FFFh) not write-protected
  3556                           ;	Write Protection Block 1
  3557                           ;	WRT1 = OFF, Block 1 (004000-007FFFh) not write-protected
  3558                           ;	Write Protection Block 2
  3559                           ;	WRT2 = OFF, Block 2 (008000-00BFFFh) not write-protected
  3560                           ;	Write Protection Block 3
  3561                           ;	WRT3 = OFF, Block 3 (00C000h-00FFFFh) not write-protected
  3562   30000A                     	org	3145738
  3563   30000A  0F                 	db	15
  3564                           
  3565                           ;Config register CONFIG6H @ 0x30000B
  3566                           ;	Configuration Register Write Protection bit
  3567                           ;	WRTC = OFF, Configuration registers (300000-3000FFh) not write-protected
  3568                           ;	Boot Block Write Protection bit
  3569                           ;	WRTB = OFF, Boot Block (000000-0007FFh) not write-protected
  3570                           ;	Data EEPROM Write Protection bit
  3571                           ;	WRTD = OFF, Data EEPROM not write-protected
  3572   30000B                     	org	3145739
  3573   30000B  E0                 	db	224
  3574                           
  3575                           ;Config register CONFIG7L @ 0x30000C
  3576                           ;	Table Read Protection Block 0
  3577                           ;	EBTR0 = OFF, Block 0 (000800-003FFFh) not protected from table reads executed in other
      +                           blocks
  3578                           ;	Table Read Protection Block 1
  3579                           ;	EBTR1 = OFF, Block 1 (004000-007FFFh) not protected from table reads executed in other
      +                           blocks
  3580                           ;	Table Read Protection Block 2
  3581                           ;	EBTR2 = OFF, Block 2 (008000-00BFFFh) not protected from table reads executed in other
      +                           blocks
  3582                           ;	Table Read Protection Block 3
  3583                           ;	EBTR3 = OFF, Block 3 (00C000-00FFFFh) not protected from table reads executed in other
      +                           blocks
  3584   30000C                     	org	3145740
  3585   30000C  0F                 	db	15
  3586                           
  3587                           ;Config register CONFIG7H @ 0x30000D
  3588                           ;	Boot Block Table Read Protection bit
  3589                           ;	EBTRB = OFF, Boot Block (000000-0007FFh) not protected from table reads executed in ot
      +                          her blocks
  3590   30000D                     	org	3145741
  3591   30000D  40                 	db	64
  3592                           tosu	equ	0xFFF
  3593                           tosh	equ	0xFFE
  3594                           tosl	equ	0xFFD
  3595                           stkptr	equ	0xFFC
  3596                           pclatu	equ	0xFFB
  3597                           pclath	equ	0xFFA
  3598                           pcl	equ	0xFF9
  3599                           tblptru	equ	0xFF8
  3600                           tblptrh	equ	0xFF7
  3601                           tblptrl	equ	0xFF6
  3602                           tablat	equ	0xFF5
  3603                           prodh	equ	0xFF4
  3604                           prodl	equ	0xFF3
  3605                           indf0	equ	0xFEF
  3606                           postinc0	equ	0xFEE
  3607                           postdec0	equ	0xFED
  3608                           preinc0	equ	0xFEC
  3609                           plusw0	equ	0xFEB
  3610                           fsr0h	equ	0xFEA
  3611                           fsr0l	equ	0xFE9
  3612                           wreg	equ	0xFE8
  3613                           indf1	equ	0xFE7
  3614                           postinc1	equ	0xFE6
  3615                           postdec1	equ	0xFE5
  3616                           preinc1	equ	0xFE4
  3617                           plusw1	equ	0xFE3
  3618                           fsr1h	equ	0xFE2
  3619                           fsr1l	equ	0xFE1
  3620                           bsr	equ	0xFE0
  3621                           indf2	equ	0xFDF
  3622                           postinc2	equ	0xFDE
  3623                           postdec2	equ	0xFDD
  3624                           preinc2	equ	0xFDC
  3625                           plusw2	equ	0xFDB
  3626                           fsr2h	equ	0xFDA
  3627                           fsr2l	equ	0xFD9
  3628                           status	equ	0xFD8

Data Sizes:
    Strings     0
    Constant    0
    Data        0
    BSS         26
    Persistent  11
    Stack       0

Auto Spaces:
    Space          Size  Autos    Used
    COMRAM           94     11      48
    BANK0           160      0       0
    BANK1           256      0       0
    BANK2           256      0       0
    BANK3           256      0       0
    BANK4           256      0       0
    BANK5           256      0       0
    BANK6           256      0       0
    BANK7           256      0       0
    BANK8           256      0       0
    BANK9           256      0       0
    BANK10          256      0       0
    BANK11          256      0       0
    BANK12          256      0       0
    BANK13          256      0       0
    BANK14          256      0       0
    BANK15           96      0       0

Pointer List with Targets:

    TMR3_SetInterruptHandler@InterruptHandler	PTR FTN()void  size(2) Largest target is 1
		 -> TMR3_DefaultInterruptHandler(), 

    TMR3_InterruptHandler	PTR FTN()void  size(2) Largest target is 1
		 -> TMR3_DefaultInterruptHandler(), NULL(), 

    TMR1_SetInterruptHandler@InterruptHandler	PTR FTN()void  size(2) Largest target is 1
		 -> TMR1_DefaultInterruptHandler(), 

    TMR1_InterruptHandler	PTR FTN()void  size(2) Largest target is 1
		 -> TMR1_DefaultInterruptHandler(), NULL(), 

    EUSART_SetErrorHandler@interruptHandler	PTR FTN()void  size(2) Largest target is 1
		 -> EUSART_DefaultErrorHandler(), 

    EUSART_ErrorHandler	PTR FTN()void  size(2) Largest target is 1
		 -> EUSART_DefaultErrorHandler(), NULL(), 

    EUSART_SetOverrunErrorHandler@interruptHandler	PTR FTN()void  size(2) Largest target is 1
		 -> EUSART_DefaultOverrunErrorHandler(), 

    EUSART_OverrunErrorHandler	PTR FTN()void  size(2) Largest target is 1
		 -> EUSART_DefaultOverrunErrorHandler(), NULL(), 

    EUSART_SetFramingErrorHandler@interruptHandler	PTR FTN()void  size(2) Largest target is 1
		 -> EUSART_DefaultFramingErrorHandler(), 

    EUSART_FramingErrorHandler	PTR FTN()void  size(2) Largest target is 1
		 -> EUSART_DefaultFramingErrorHandler(), NULL(), 

    I2C_SlaveBusColInterruptHandler	PTR FTN()void  size(2) Largest target is 1
		 -> NULL(), I2C_SlaveDefBusColInterruptHandler(), 

    I2C_SlaveWrColInterruptHandler	PTR FTN()void  size(2) Largest target is 1
		 -> NULL(), I2C_SlaveDefWrColInterruptHandler(), 

    I2C_SlaveAddrInterruptHandler	PTR FTN()void  size(2) Largest target is 1
		 -> NULL(), I2C_SlaveDefAddrInterruptHandler(), 

    I2C_SlaveWrInterruptHandler	PTR FTN()void  size(2) Largest target is 1
		 -> NULL(), I2C_SlaveDefWrInterruptHandler(), 

    I2C_SlaveRdInterruptHandler	PTR FTN()void  size(2) Largest target is 1
		 -> NULL(), I2C_SlaveDefRdInterruptHandler(), 

    MSSP_InterruptHandler	PTR FTN()void  size(2) Largest target is 1
		 -> NULL(), I2C_Isr(), 


Critical Paths under _main in COMRAM

    _main->_DATAEE_WriteByte
    _TMR3_Initialize->_TMR3_SetInterruptHandler
    _TMR1_Initialize->_TMR1_SetInterruptHandler
    _EUSART_Initialize->_EUSART_SetErrorHandler
    _EUSART_Initialize->_EUSART_SetFramingErrorHandler
    _EUSART_Initialize->_EUSART_SetOverrunErrorHandler

Critical Paths under _INTERRUPT_InterruptManagerHigh in COMRAM

    _INTERRUPT_InterruptManagerHigh->_I2C_Isr
    _TMR3_ISR->_TMR3_WriteTimer
    _TMR1_ISR->_TMR1_WriteTimer
    _I2C_SlaveDefWrInterruptHandler->_I2C_SlaveSendTxData

Critical Paths under _main in BANK0

    None.

Critical Paths under _INTERRUPT_InterruptManagerHigh in BANK0

    None.

Critical Paths under _main in BANK1

    None.

Critical Paths under _INTERRUPT_InterruptManagerHigh in BANK1

    None.

Critical Paths under _main in BANK2

    None.

Critical Paths under _INTERRUPT_InterruptManagerHigh in BANK2

    None.

Critical Paths under _main in BANK3

    None.

Critical Paths under _INTERRUPT_InterruptManagerHigh in BANK3

    None.

Critical Paths under _main in BANK4

    None.

Critical Paths under _INTERRUPT_InterruptManagerHigh in BANK4

    None.

Critical Paths under _main in BANK5

    None.

Critical Paths under _INTERRUPT_InterruptManagerHigh in BANK5

    None.

Critical Paths under _main in BANK6

    None.

Critical Paths under _INTERRUPT_InterruptManagerHigh in BANK6

    None.

Critical Paths under _main in BANK7

    None.

Critical Paths under _INTERRUPT_InterruptManagerHigh in BANK7

    None.

Critical Paths under _main in BANK8

    None.

Critical Paths under _INTERRUPT_InterruptManagerHigh in BANK8

    None.

Critical Paths under _main in BANK9

    None.

Critical Paths under _INTERRUPT_InterruptManagerHigh in BANK9

    None.

Critical Paths under _main in BANK10

    None.

Critical Paths under _INTERRUPT_InterruptManagerHigh in BANK10

    None.

Critical Paths under _main in BANK11

    None.

Critical Paths under _INTERRUPT_InterruptManagerHigh in BANK11

    None.

Critical Paths under _main in BANK12

    None.

Critical Paths under _INTERRUPT_InterruptManagerHigh in BANK12

    None.

Critical Paths under _main in BANK13

    None.

Critical Paths under _INTERRUPT_InterruptManagerHigh in BANK13

    None.

Critical Paths under _main in BANK14

    None.

Critical Paths under _INTERRUPT_InterruptManagerHigh in BANK14

    None.

Critical Paths under _main in BANK15

    None.

Critical Paths under _INTERRUPT_InterruptManagerHigh in BANK15

    None.

Call Graph Tables:

 ---------------------------------------------------------------------------------
 (Depth) Function   	        Calls       Base Space   Used Autos Params    Refs
 ---------------------------------------------------------------------------------
 (0) _main                                                 2     2      0    1187
                                              9 COMRAM     2     2      0
                   _DATAEE_WriteByte
                        _EUSART_Read
                  _SYSTEM_Initialize
 ---------------------------------------------------------------------------------
 (1) _SYSTEM_Initialize                                    0     0      0     490
                  _EUSART_Initialize
                     _I2C_Initialize
               _INTERRUPT_Initialize
              _OSCILLATOR_Initialize
             _PIN_MANAGER_Initialize
                    _TMR1_Initialize
                    _TMR3_Initialize
 ---------------------------------------------------------------------------------
 (2) _TMR3_Initialize                                      0     0      0      98
           _TMR3_SetInterruptHandler
 ---------------------------------------------------------------------------------
 (3) _TMR3_SetInterruptHandler                             2     0      2      98
                                              5 COMRAM     2     0      2
 ---------------------------------------------------------------------------------
 (2) _TMR1_Initialize                                      0     0      0      98
           _TMR1_SetInterruptHandler
 ---------------------------------------------------------------------------------
 (3) _TMR1_SetInterruptHandler                             2     0      2      98
                                              5 COMRAM     2     0      2
 ---------------------------------------------------------------------------------
 (2) _PIN_MANAGER_Initialize                               0     0      0       0
 ---------------------------------------------------------------------------------
 (2) _OSCILLATOR_Initialize                                0     0      0       0
 ---------------------------------------------------------------------------------
 (2) _INTERRUPT_Initialize                                 0     0      0       0
 ---------------------------------------------------------------------------------
 (2) _I2C_Initialize                                       0     0      0       0
 ---------------------------------------------------------------------------------
 (2) _EUSART_Initialize                                    0     0      0     294
             _EUSART_SetErrorHandler
      _EUSART_SetFramingErrorHandler
      _EUSART_SetOverrunErrorHandler
 ---------------------------------------------------------------------------------
 (3) _EUSART_SetOverrunErrorHandler                        2     0      2      98
                                              5 COMRAM     2     0      2
 ---------------------------------------------------------------------------------
 (3) _EUSART_SetFramingErrorHandler                        2     0      2      98
                                              5 COMRAM     2     0      2
 ---------------------------------------------------------------------------------
 (3) _EUSART_SetErrorHandler                               2     0      2      98
                                              5 COMRAM     2     0      2
 ---------------------------------------------------------------------------------
 (1) _EUSART_Read                                          0     0      0       0
 ---------------------------------------------------------------------------------
 (1) _DATAEE_WriteByte                                     4     1      3     697
                                              5 COMRAM     4     1      3
 ---------------------------------------------------------------------------------
 Estimated maximum stack depth 3
 ---------------------------------------------------------------------------------
 (Depth) Function   	        Calls       Base Space   Used Autos Params    Refs
 ---------------------------------------------------------------------------------
 (4) _INTERRUPT_InterruptManagerHigh                       2     2      0     495
                                              3 COMRAM     2     2      0
                                NULL *
                            _I2C_Isr *
                           _TMR1_ISR
                           _TMR3_ISR
 ---------------------------------------------------------------------------------
 (5) _TMR3_ISR                                             0     0      0     240
                                NULL *
       _TMR3_DefaultInterruptHandler *
                    _TMR3_WriteTimer
 ---------------------------------------------------------------------------------
 (6) _TMR3_WriteTimer                                      2     0      2     240
                                              0 COMRAM     2     0      2
 ---------------------------------------------------------------------------------
 (6) _TMR3_DefaultInterruptHandler                         0     0      0       0
 ---------------------------------------------------------------------------------
 (5) _TMR1_ISR                                             0     0      0     240
                                NULL *
       _TMR1_DefaultInterruptHandler *
                    _TMR1_WriteTimer
 ---------------------------------------------------------------------------------
 (6) _TMR1_WriteTimer                                      2     0      2     240
                                              0 COMRAM     2     0      2
 ---------------------------------------------------------------------------------
 (6) _TMR1_DefaultInterruptHandler                         0     0      0       0
 ---------------------------------------------------------------------------------
 (5) _I2C_Isr                                              2     2      0      15
                                              1 COMRAM     2     2      0
              _I2C_SlaveAddrCallBack
                  _I2C_SlaveClearIrq
                    _I2C_SlaveIsAddr
                    _I2C_SlaveIsRead
               _I2C_SlaveIsRxBufFull
              _I2C_SlaveIsTxBufEmpty
                _I2C_SlaveRdCallBack
              _I2C_SlaveReleaseClock
                _I2C_SlaveWrCallBack
 ---------------------------------------------------------------------------------
 (6) _I2C_SlaveWrCallBack                                  0     0      0      15
                                NULL *
     _I2C_SlaveDefWrInterruptHandler *
 ---------------------------------------------------------------------------------
 (7) _I2C_SlaveDefWrInterruptHandler                       0     0      0      15
                _I2C_SlaveSendTxData
 ---------------------------------------------------------------------------------
 (8) _I2C_SlaveSendTxData                                  1     1      0      15
                                              0 COMRAM     1     1      0
 ---------------------------------------------------------------------------------
 (6) _I2C_SlaveReleaseClock                                0     0      0       0
 ---------------------------------------------------------------------------------
 (6) _I2C_SlaveRdCallBack                                  0     0      0       0
                                NULL *
     _I2C_SlaveDefRdInterruptHandler *
 ---------------------------------------------------------------------------------
 (7) _I2C_SlaveDefRdInterruptHandler                       0     0      0       0
                 _I2C_SlaveGetRxData
 ---------------------------------------------------------------------------------
 (6) _I2C_SlaveIsTxBufEmpty                                0     0      0       0
 ---------------------------------------------------------------------------------
 (6) _I2C_SlaveIsRxBufFull                                 0     0      0       0
 ---------------------------------------------------------------------------------
 (6) _I2C_SlaveIsRead                                      0     0      0       0
 ---------------------------------------------------------------------------------
 (6) _I2C_SlaveIsAddr                                      0     0      0       0
 ---------------------------------------------------------------------------------
 (6) _I2C_SlaveClearIrq                                    0     0      0       0
 ---------------------------------------------------------------------------------
 (6) _I2C_SlaveAddrCallBack                                0     0      0       0
                                NULL *
   _I2C_SlaveDefAddrInterruptHandler *
 ---------------------------------------------------------------------------------
 (7) _I2C_SlaveDefAddrInterruptHandler                     0     0      0       0
                 _I2C_SlaveGetRxData
 ---------------------------------------------------------------------------------
 (8) _I2C_SlaveGetRxData                                   0     0      0       0
 ---------------------------------------------------------------------------------
 (6) NULL(Fake)                                            0     0      0       0
 ---------------------------------------------------------------------------------
 Estimated maximum stack depth 8
 ---------------------------------------------------------------------------------

 Call Graph Graphs:

 _main (ROOT)
   _DATAEE_WriteByte
   _EUSART_Read
   _SYSTEM_Initialize
     _EUSART_Initialize
       _EUSART_SetErrorHandler
       _EUSART_SetFramingErrorHandler
       _EUSART_SetOverrunErrorHandler
     _I2C_Initialize
     _INTERRUPT_Initialize
     _OSCILLATOR_Initialize
     _PIN_MANAGER_Initialize
     _TMR1_Initialize
       _TMR1_SetInterruptHandler
     _TMR3_Initialize
       _TMR3_SetInterruptHandler

 _INTERRUPT_InterruptManagerHigh (ROOT)
   NULL(Fake) *
   _I2C_Isr *
     _I2C_SlaveAddrCallBack
       NULL(Fake) *
       _I2C_SlaveDefAddrInterruptHandler *
         _I2C_SlaveGetRxData
     _I2C_SlaveClearIrq
     _I2C_SlaveIsAddr
     _I2C_SlaveIsRead
     _I2C_SlaveIsRxBufFull
     _I2C_SlaveIsTxBufEmpty
     _I2C_SlaveRdCallBack
       NULL(Fake) *
       _I2C_SlaveDefRdInterruptHandler *
         _I2C_SlaveGetRxData
     _I2C_SlaveReleaseClock
     _I2C_SlaveWrCallBack
       NULL(Fake) *
       _I2C_SlaveDefWrInterruptHandler *
         _I2C_SlaveSendTxData
   _TMR1_ISR *
     NULL(Fake) *
     _TMR1_DefaultInterruptHandler *
     _TMR1_WriteTimer *
   _TMR3_ISR *
     NULL(Fake) *
     _TMR3_DefaultInterruptHandler *
     _TMR3_WriteTimer *

 Address spaces:
Name               Size   Autos  Total    Cost      Usage
BIGRAM             F5F      0       0      52        0.0%
EEDATA             400      0       0       0        0.0%
BITBANK14          100      0       0      33        0.0%
BANK14             100      0       0      34        0.0%
BITBANK13          100      0       0      31        0.0%
BANK13             100      0       0      32        0.0%
BITBANK12          100      0       0      29        0.0%
BANK12             100      0       0      30        0.0%
BITBANK11          100      0       0      26        0.0%
BANK11             100      0       0      27        0.0%
BITBANK10          100      0       0      24        0.0%
BANK10             100      0       0      25        0.0%
BITBANK9           100      0       0      22        0.0%
BANK9              100      0       0      23        0.0%
BITBANK8           100      0       0      20        0.0%
BANK8              100      0       0      21        0.0%
BITBANK7           100      0       0      18        0.0%
BANK7              100      0       0      19        0.0%
BITBANK6           100      0       0      16        0.0%
BANK6              100      0       0      17        0.0%
BITBANK5           100      0       0      14        0.0%
BANK5              100      0       0      15        0.0%
BITBANK4           100      0       0      12        0.0%
BANK4              100      0       0      13        0.0%
BITBANK3           100      0       0      10        0.0%
BANK3              100      0       0      11        0.0%
BITBANK2           100      0       0       8        0.0%
BANK2              100      0       0       9        0.0%
BITBANK1           100      0       0       6        0.0%
BANK1              100      0       0       7        0.0%
BITBANK0            A0      0       0       4        0.0%
BANK0               A0      0       0       5        0.0%
BITBANK15           60      0       0      35        0.0%
BANK15              60      0       0      36        0.0%
BITCOMRAM           5E      0       0       0        0.0%
COMRAM              5E      B      30       1       51.1%
BITBIGSFRhl         1D      0       0      39        0.0%
BITBIGSFRllllll     17      0       0      51        0.0%
BITBIGSFRlhlhlh      C      0       0      42        0.0%
BITBIGSFRllllh       9      0       0      48        0.0%
BITBIGSFRhhh         7      0       0      37        0.0%
BITBIGSFRlhlhll      4      0       0      43        0.0%
BITBIGSFRllllll      4      0       0      50        0.0%
BITBIGSFRllhh        4      0       0      46        0.0%
BITBIGSFRllhll       4      0       0      47        0.0%
BITBIGSFRlhlhh       3      0       0      41        0.0%
BITBIGSFRlhlhll      3      0       0      44        0.0%
BITBIGSFRlhh         2      0       0      40        0.0%
BITBIGSFRhhl         2      0       0      38        0.0%
BITBIGSFRlllllh      1      0       0      49        0.0%
BITBIGSFRlhllll      1      0       0      45        0.0%
BIGSFR               0      0       0     200        0.0%
BITSFR               0      0       0     200        0.0%
SFR                  0      0       0     200        0.0%
STACK                0      0       0       2        0.0%
NULL                 0      0       0       0        0.0%
ABS                  0      0      30      28        0.0%
DATA                 0      0      30       3        0.0%
CODE                 0      0       0       0        0.0%


Microchip Technology PIC18 Macro Assembler V2.41 build 20230208172133 
Symbol Table                                                                                   Sun Feb 18 15:46:37 2024

                                  _SSPSTATbits 0FC7                                             l33 0958  
                                           l36 09FC                                             l69 07EC  
                                          l105 09DE                                            l223 09D2  
                                          l423 073C                                            l440 0878  
                                          l610 0914                                            l524 06E4  
                                          l444 089E                                            l526 06F2  
                                          l462 0A10                                            l527 06FE  
                                          l465 0A06                                            l801 045E  
                                          l721 01BC                                            l634 09E8  
                                          l811 047C                                            l803 0460  
                                          l731 01C6                                            l723 01BE  
                                          l715 01B6                                            l468 0A1A  
                                          l821 04B8                                            l805 0462  
                                          l725 01C0                                            l717 01B8  
                                          l582 09F2                                            l558 093A  
                                          l831 04F4                                            l751 0234  
                                          l743 0210                                            l727 01C2  
                                          l719 01BA                                            l841 0530  
                                          l809 047A                                            l753 0236  
                                          l745 0212                                            l737 01F8  
                                          l729 01C4                                            l770 0352  
                                          l819 04B6                                            l755 0238  
                                          l739 01FA                                            l691 00E6  
                                          l764 029E                                            l861 05B2  
                                          l853 0582                                            l829 04F2  
                                          l781 0436                                            l773 03A6  
                                          l757 023A                                            l749 0232  
                                          l847 05B8                                            l839 052E  
                                          l791 0440                                            l783 0438  
                                          l767 02F2                                            l759 023C  
                                          l695 00FE                                            l776 0406  
                                          l857 059A                                            l849 056A  
                                          l785 043A                                            l795 0458  
                                          l787 043C                                            l797 045A  
                                          l789 043E                                            l799 045C  
                                          u250 0886                                            u251 0882  
                                          u260 0898                                            u261 0894  
                                          u900 06F2                                            u901 06EE  
                                          u915 06FC                                            u916 06FE  
                        ??_I2C_SlaveRdCallBack 0026                                _timer1ReloadVal 0003  
                          _I2C_SlaveSendTxData 0A24                                __end_of_I2C_Isr 06BC  
               ?_EUSART_SetFramingErrorHandler 002B                                            tosl 0FFD  
                                          wreg 0FE8                            _I2C_SlaveWrCallBack 07EE  
                                 ?_EUSART_Read 0026                                           l2200 09E0  
                                         l2210 0904                                           l2202 08F0  
                                         l2300 06CE                                           l2220 0928  
                                         l2212 0910                                           l2204 08F8  
                                         l2310 06DA                                           l2302 06D2  
                                         l2230 0720                                           l2222 092A  
                                         l2214 0916                                           l2206 0900  
                                         l2312 06DE                                           l2304 06D4  
                                         l2232 072C                                           l2224 0936  
                                         l2216 091E                                           l2208 0902  
                                         l2400 02DA                                           l2314 06E2  
                                         l2306 06D6                                           l2234 0738  
                                         l2226 0700                                           l2218 0926  
                                         l2410 03CA                                           l2402 0316  
                              _timer3ReloadVal 0001                                           l2308 06D8  
                                         l2228 0714                                           l2420 0468  
                                         l2412 03E2                                           l2404 032E  
                                         l2340 00C8                                           l2270 0948  
                                         l2422 047E                                           l2430 04A4  
                                         l2414 041E                                           l2406 036A  
                                         l2350 00EC                                           l2342 00CA  
                                         l2192 0A08                                           l2272 094C  
                                         l2264 093C                                           l2432 04BA  
                                         l2440 04E0                                           l2424 0498  
                                         l2408 038E                                           l2416 0424  
                                         l2360 013E                                           l2352 0104  
                                         l2344 00CC                                           l2194 09FE  
                                         l1570 09CC                                           l2274 0950  
                                         l2266 0940                                           l2442 04F6  
                                         l2450 051C                                           l2434 04D4  
                                         l2426 049A                                           l2418 0446  
                                         l2370 017C                                           l2362 014E  
                                         l2354 0116                                           l2346 00CE  
                                         l2338 00C4                                           l2196 0A12  
                                         l1572 09D0                                           l1564 09D4  
                                         l2276 0954                                           l2268 0944  
                                         l2452 0532                                           l2460 0558  
                                         l2444 0510                                           l2436 04D6  
                                         l2428 049C                                           l2380 01D8  
                                         l2372 018E                                           l2364 0154  
                                         l2356 0126                                           l2348 00D4  
                                         l2294 06BC                                           l1750 088A  
                                         l1566 09C4                                           l1574 07B6  
                                         l2198 09EA                                           l2462 0570  
                                         l2454 054C                                           l2446 0512  
                                         l2438 04D8                                           l2390 0218  
                                         l2382 01E8                                           l2374 019E  
                                         l2366 0166                                           l2358 012C  
                                         l2296 06C4                                           l1752 0898  
                                         l1568 09C8                                           l1576 07EA  
                                         l2464 0588                                           l2456 054E  
                                         l2448 0514                                           l2392 023E  
                                         l2384 01FC                                           l2376 01A4  
                                         l2368 0176                                           l2298 06CA  
                                         l1754 089C                                           l1746 0878  
                                         l1578 09F4                                           l2466 05A0  
                                         l2458 0550                                           l2394 0262  
                                         l2386 0200                                           l2378 01C8  
                                         l1748 0886                                           l2396 027A  
                                         l2388 0214                                           l2398 02B6  
                                         u1010 00E6                                           u1011 00E2  
                                         u1100 01F8                                           u1020 00FE  
                                         u1101 01F4                                           u1021 00FA  
                                         u1110 0210                                           u1030 0116  
                                         u1111 020C                                           u1031 0112  
                                         u1200 0436                                           u1120 024E  
                                         u1040 013E                                           u1201 0432  
                                         u1121 0248                                           u1041 013A  
                                         u1210 0458                                           u1130 028A  
                                         u1050 0166                                           u1211 0454  
                                         u1131 0284                                           u1051 0162  
                                         u1220 047A                                           u1140 02C6  
                                         u1060 018E                                           u1221 0476  
                                         u1141 02C0                                           u1061 018A  
                                         u1230 04B6                                           u1150 0302  
                                         u1126 0250                                           u1070 01B6  
                                         u1231 04B2                                           u1151 02FC  
                                         u1071 01B2                                           u1240 04F2  
                                         u1160 033E                                           u1136 028C  
                                         u1080 01D8                                           u1241 04EE  
                                         u1161 0338                                           u1081 01D4  
                                         u1250 052E                                           u1170 037A  
                                         u1146 02C8                                           u1090 01E8  
                                         u1251 052A                                           u1171 0374  
                                         u1307 0222                                           u1091 01E4  
                                         u1260 056A                                           u1180 03B6  
                                         u1156 0304                                           u1261 0566  
                                         u1181 03B0                                           u1317 026C  
                                         _LATA 0F89                                           u1270 0582  
                                         u1190 03F2                                           u1166 0340  
                                         _LATB 0F8A                                           u1271 057E  
                                         u1407 04C4                                           u1191 03EC  
                                         u1327 02A8                                           _LATC 0F8B  
                                         u1280 059A                                           u1176 037C  
                                         _LATD 0F8C                                           u1281 0596  
                                         u1417 0500                                           u1337 02E4  
                                         _LATE 0F8D                                           u1290 05B2  
                                         u1186 03B8                                           u1291 05AE  
                                         u1427 053C                                           u1347 0320  
                                         u1196 03F4                                           u1357 035C  
                                         u1367 0398                                           u1377 03D4  
                                         u1387 0410                                           u1397 0488  
                                         _TMR1 0FCE                                           _TMR3 0FB2  
                                         _WPUB 0F7C                        __end_of_I2C_SlaveIsAddr 09C4  
                      __end_of_I2C_SlaveIsRead 09B0                                           _main 00C4  
                                         btemp 0031                           ?_I2C_SlaveSendTxData 0026  
                                         start 00C0                           ?_I2C_SlaveWrCallBack 0026  
                              _TMR3_Initialize 08F0                     ??_TMR1_SetInterruptHandler 002D  
                                 ___param_bank 0000                                  _window1_state 0012  
                                _window2_state 0011                  __end_of_I2C_SlaveAddrCallBack 0878  
                __end_of_OSCILLATOR_Initialize 09FE            fp__I2C_SlaveDefAddrInterruptHandler 0000  
     __end_of_I2C_SlaveDefAddrInterruptHandler 0A3C             ??_I2C_SlaveDefAddrInterruptHandler 0026  
            ?_I2C_SlaveDefAddrInterruptHandler 0026               _I2C_SlaveDefAddrInterruptHandler 0A34  
                                        ?_main 0026                                          _EEADR 0FA9  
                                        _ANSEL 0F7E                                          _T1CON 0FCD  
                                        _T3CON 0FB1                                          i2l110 004C  
                                        i2l112 006C                                          i2l113 00B4  
                                        i2l114 0090                                          i2l118 00B4  
                                        i2l341 09AE                                          i2l344 0A42  
                                        i2l338 09C2                                          i2l362 099A  
                                        i2l266 06BA                                          i2l347 0A3E  
                                        i2l276 0848                                          i2l365 0A2A  
                                        i2l286 081A                                          i2l359 0986  
                                        i2l279 0A32                                          i2l631 0778  
                                        i2l368 0A46                                          i2l296 0876  
                                        i2l624 08C6                                          i2l289 0A22  
                                        i2l299 0A3A                                          i2l572 08EE  
                                        i2l637 0A48                                          i2l585 0A4A  
                                        i2l579 07B4                                          _RCREG 0FAE  
                                        _RCSTA 0FAB                          _I2C_SlaveReleaseClock 0A3C  
                                        _TMR1H 0FCF                                          _TMR1L 0FCE  
                                        _TMR3H 0FB3                                          _TMR3L 0FB2  
                                        _SPBRG 0FAF                                          _TRISA 0F92  
                                        _TRISB 0F93                                          _TRISC 0F94  
                                        _TRISD 0F95                                          _TRISE 0F96  
                                        _TXREG 0FAD                                          _TXSTA 0FAC  
                    ?_TMR3_SetInterruptHandler 002B                               __end_of_TMR1_ISR 07B6  
                             __end_of_TMR3_ISR 077A                         ??_I2C_SlaveIsRxBufFull 0026  
               ??_TMR3_DefaultInterruptHandler 0026                        __end_of_TMR1_Initialize 093C  
                                        pclath 0FFA                                          pclatu 0FFB  
                                        ttemp5 0032                                          ttemp6 0035  
                                        ttemp7 0039                                          status 0FD8  
                                        wtemp8 0032                          ??_I2C_SlaveSendTxData 0026  
                              _TMR1_WriteTimer 08C8                          ??_I2C_SlaveWrCallBack 0027  
                              __initialization 095A                                   __end_of_main 05C0  
                                    ??_I2C_Isr 0027                                         ??_main 002F  
                                __activetblptr 0002                          _TMR3_InterruptHandler 001B  
                  _I2C_SlaveRdInterruptHandler 000D                    _I2C_SlaveWrInterruptHandler 000B  
            _EUSART_DefaultFramingErrorHandler 0000                     __end_of_I2C_SlaveGetRxData 0A48  
                   _EUSART_OverrunErrorHandler 0021                                         _EEADRH 0FAA  
                                       _EEDATA 0FA8                                         _EECON2 0FA7  
                                       _ANSELH 0F7F                        TMR1_WriteTimer@timerVal 0026  
                      __end_of_TMR3_Initialize 0916                                         i2l2240 08D8  
                                       i2l2320 002E                                         i2l2242 08DC  
                                       i2l2250 08A0                                         i2l2330 009E  
                                       i2l2322 005A                                         i2l1620 09B0  
                                       i2l2244 08E0                                         i2l2236 08C8  
                                       i2l2252 08AE                                         i2l2260 08BE  
                                       i2l2332 00AC                                         i2l2316 0012  
                                       i2l1542 0A44                                         i2l1614 099C  
                                       i2l1550 0A1C                                         i2l1710 05EC  
                                       i2l2238 08D6                                         i2l2246 08E6  
                                       i2l2262 08C2                                         i2l2254 08B0  
                                       i2l2326 007A                                         i2l2318 0020  
                                       i2l1552 0A34                                         i2l1624 084A  
                                       i2l1640 081C                                         i2l1632 07EE  
                                       i2l1720 0620                                         i2l1712 05F4  
                                       i2l1704 05C0                                         i2l2248 08EA  
                                       i2l2256 08B4                                         i2l2280 0740  
                                       i2l2328 0088                                         i2l1626 085C  
                                       i2l1618 0A40                                         i2l1642 082E  
                                       i2l1546 0A26                                         i2l1634 0800  
                                       i2l1722 0624                                         i2l1714 05FC  
                                       i2l1706 05C4                                         i2l2290 0788  
                                       i2l2258 08B8                                         i2l2282 074C  
                                       i2l1636 0988                                         i2l1628 0974  
                                       i2l1548 0A2C                                         i2l1644 0A3C  
                                       i2l1732 0660                                         i2l1724 0638  
                                       i2l1740 06B6                                         i2l1716 0610  
                                       i2l1708 05D8                                         i2l2292 079A  
                                       i2l2284 075E                                         i2l1734 0674  
                                       i2l1726 0640                                         i2l1718 0618  
                                       i2l2286 077A                                         i2l2278 073E  
                                       i2l2472 0690                                         i2l1728 0648  
                                       i2l2288 077C                                         i2l1738 067C  
                                       _TABLAT 0FF5                                         _OSCCON 0FD3  
                             ?_I2C_SlaveIsAddr 0026                                         _SPBRGH 0FB0  
                                       i2u1_40 09AC                                         i2u1_41 09A6  
                                       i2u1_46 09AE                                         i2u2_40 09C0  
                                       i2u2_41 09BA                                         i2u3_40 09C2  
                                       i2u4_40 085C                                         i2u4_41 0858  
                                       i2u5_48 0862                                         i2u6_40 0984  
                                       i2u5_49 0876                                         i2u6_41 097E  
                                       i2u7_40 0986                                         _SSPADD 0FC8  
                             ?_I2C_SlaveIsRead 0026                                         i2u8_40 0800  
                                       i2u8_41 07FC                                         i2u9_48 0806  
                                       i2u9_49 081A                                         _SSPBUF 0FC9  
                                       _SSPMSK 0F77                                _TMR3_WriteTimer 08A0  
         __end_of_TMR1_DefaultInterruptHandler 0A4C                   _TMR1_DefaultInterruptHandler 0A4A  
                                       clear_0 0960                                         isa$std 0001  
                       ?_I2C_SlaveReleaseClock 0026                        ??_I2C_SlaveIsTxBufEmpty 0026  
                                       tblptru 0FF8       TMR3_SetInterruptHandler@InterruptHandler 002B  
     TMR1_SetInterruptHandler@InterruptHandler 002B                        __end_of_TMR1_WriteTimer 08F0  
                             ?_TMR1_Initialize 0026               ??_INTERRUPT_InterruptManagerHigh 0029  
              ?_INTERRUPT_InterruptManagerHigh 0026                              _SYSTEM_Initialize 093C  
                                   __accesstop 0060                        __end_of__initialization 0966  
                           ?_SYSTEM_Initialize 0026                                  ___rparam_used 0001  
                                _zero_crossing 0014                                 __pcstackCOMRAM 0026  
                          ??_SYSTEM_Initialize 002D                                      ?_TMR1_ISR 0026  
              fp__TMR1_DefaultInterruptHandler 0000                  ?_TMR1_DefaultInterruptHandler 0026  
                                    ?_TMR3_ISR 0026                               _DATAEE_WriteByte 06BC  
              ??_EUSART_SetOverrunErrorHandler 002D                      __end_of_SYSTEM_Initialize 095A  
                      __end_of_TMR3_WriteTimer 08C8                               ?_TMR3_Initialize 0026  
                                   __pnvCOMRAM 001B               __end_of_TMR3_SetInterruptHandler 09EA  
                                   ??_TMR1_ISR 0028                                     ??_TMR3_ISR 0028  
                  __end_of_I2C_SlaveRdCallBack 084A                                        _BAUDCON 0FB8  
                                      _I2C_Isr 05C0                                        _TBLPTRH 0FF7  
                                      _TBLPTRL 0FF6                                        i2u10_40 0998  
                                      i2u10_41 0992                                        _TBLPTRU 0FF8  
                                      i2u10_46 099A                                        i2u11_40 082E  
                                      i2u11_41 082A                                        i2u20_40 05EC  
                                      i2u20_41 05E8                                        i2u12_48 0834  
                                      i2u21_40 0610                                        i2u12_49 0848  
                                      i2u21_41 060C                                        i2u22_40 0638  
                                      i2u22_41 0634                                        i2u23_40 065C  
                                      i2u23_41 0658                                        i2u24_40 0674  
                                      i2u24_41 0670                                        i2u19_40 05D8  
                                      i2u19_41 05D4                                        _OSCTUNE 0F9B  
                                      i2u84_40 08D6                                        i2u92_40 0020  
                                      i2u84_41 08D2                                        i2u92_41 001C  
                                      i2u85_40 08AE                                        i2u93_40 002E  
                                      i2u85_41 08AA                                        i2u93_41 002A  
                                      i2u86_40 075E                                        i2u86_41 075A  
                                      i2u95_40 005A                                        i2u94_48 0034  
                                      i2u95_41 0056                                        i2u94_49 0048  
                                      i2u88_40 079A                                        i2u87_48 0764  
                                      i2u96_40 0068                                        i2u88_41 0796  
                                      i2u87_49 0778                                        i2u96_41 0064  
                                      i2u97_40 007A                                        i2u97_41 0076  
                                      i2u89_48 07A0                                        i2u98_40 0088  
                                      i2u89_49 07B4                                        i2u98_41 0084  
                                      i2u99_40 009E                                        i2u99_41 009A  
                     ??_EUSART_SetErrorHandler 002D                                        _SSPCON1 0FC6  
                                      _SSPCON2 0FC5                                        _SSPSTAT 0FC7  
                             ?_TMR1_WriteTimer 0026                           DATAEE_WriteByte@bAdd 002B  
                                      __Hparam 0000                                        __Lparam 0000  
                      I2C_SlaveSendTxData@data 0026                          _I2C_SlaveAddrCallBack 084A  
                                      __pcinit 095A                                 _I2C_Initialize 09C4  
                                      __ramtop 1000                                        __ptext0 00C4  
                                      __ptext1 093C                                        __ptext2 08F0  
                                      __ptext3 09E0                                        __ptext4 0916  
                                      __ptext5 09EA                                        __ptext6 07B6  
                                      __ptext7 09F4                                        __ptext8 09D4  
                                      __ptext9 09C4                 ??_TMR1_DefaultInterruptHandler 0026  
                                   fp__I2C_Isr 0000                                      _T1CONbits 0FCD  
                                      _counter 0013                          _OSCILLATOR_Initialize 09F4  
                                    _T3CONbits 0FB1                       ??_PIN_MANAGER_Initialize 002B  
                    ?_TMR1_SetInterruptHandler 002B                    __end_of_I2C_SlaveSendTxData 0A2C  
                         end_of_initialization 0966                               ?_TMR3_WriteTimer 0026  
                  __end_of_I2C_SlaveWrCallBack 081C          __end_of_EUSART_SetOverrunErrorHandler 0A08  
                _EUSART_SetOverrunErrorHandler 09FE                                  __Lmediumconst 0000  
                            _EUSART_Initialize 0700                             _I2C_SlaveGetRxData 0A44  
                                 _i2cSlaveAddr 0018                             ?_EUSART_Initialize 0026  
                                    _RCSTAbits 0FAB                                        postinc0 0FEE  
                       __end_of_I2C_Initialize 09D4                        ??_I2C_SlaveReleaseClock 0026  
                          ?_I2C_SlaveGetRxData 0026                            ??_EUSART_Initialize 002D  
                     _TMR3_SetInterruptHandler 09E0                  __end_of_I2C_SlaveIsTxBufEmpty 0988  
                     __end_of_DATAEE_WriteByte 0700                           ??_I2C_SlaveGetRxData 0026  
                    __end_of_EUSART_Initialize 073E                                      _TXSTAbits 0FAC  
                       ?_I2C_SlaveAddrCallBack 0026                   __end_of_INTERRUPT_Initialize 09E0  
                              ?_I2C_Initialize 0026                     _EUSART_DefaultErrorHandler 0000  
                                    _i2cRdData 0019                         ?_OSCILLATOR_Initialize 0026  
                                    _i2cWrData 001A                            start_initialization 095A  
                                ??_EUSART_Read 002B                 ?_EUSART_SetOverrunErrorHandler 002B  
                   _EUSART_FramingErrorHandler 0023                         _EUSART_SetErrorHandler 0A12  
                                     ?_I2C_Isr 0026                                    __pbssCOMRAM 0001  
                          __end_of_EUSART_Read 08A0                         _PIN_MANAGER_Initialize 07B6  
                                    __pintcode 0008               __end_of_TMR1_SetInterruptHandler 09F4  
                                 _readed_value 0025                              ??_I2C_SlaveIsAddr 0026  
                            ??_I2C_SlaveIsRead 0026              fp__I2C_SlaveDefRdInterruptHandler 0000  
             ??_I2C_SlaveDefRdInterruptHandler 0026                ?_I2C_SlaveDefRdInterruptHandler 0026  
            fp__I2C_SlaveDefWrInterruptHandler 0000               ??_I2C_SlaveDefWrInterruptHandler 0027  
              ?_I2C_SlaveDefWrInterruptHandler 0026                           _INTERRUPT_Initialize 09D4  
                                     _LATAbits 0F89         EUSART_SetErrorHandler@interruptHandler 002B  
                                     _LATBbits 0F8A                                       _LATCbits 0F8B  
                                     _LATDbits 0F8C                                       _IPR1bits 0F9F  
                                     _IPR2bits 0FA2                                       _PIE1bits 0F9D  
                                     _PIE2bits 0FA0                              _eusartRxLastError 0016  
                            _I2C_SlaveClearIrq 0A40                                       i2u100_40 00AC  
                                     i2u100_41 00A8                                       _PIR1bits 0F9E  
              ??_EUSART_SetFramingErrorHandler 002D                                       _PIR2bits 0FA1  
                   ??_TMR3_SetInterruptHandler 002D                             ?_I2C_SlaveClearIrq 0026  
                                     _RCONbits 0FD0              _EUSART_DefaultOverrunErrorHandler 0000  
                 __end_of_I2C_SlaveIsRxBufFull 099C                                       _TMR1_ISR 077A  
                                     _TMR3_ISR 073E                  __end_of_I2C_SlaveReleaseClock 0A40  
                          ??_I2C_SlaveClearIrq 0026                              ??_TMR1_Initialize 002D  
                        DATAEE_WriteByte@bData 002D                                    _EUSART_Read 0878  
                                  _INTCON2bits 0FF1                          ?_INTERRUPT_Initialize 0026  
                            ?_DATAEE_WriteByte 002B              _I2C_SlaveDefWrColInterruptHandler 0000  
                    __end_of_I2C_SlaveClearIrq 0A44                             ??_DATAEE_WriteByte 002E  
                                   _EECON1bits 0FA6                               ??_I2C_Initialize 002B  
                      ??_I2C_SlaveAddrCallBack 0026                                       __Hrparam 0000  
                                     __Lrparam 0000                        ??_OSCILLATOR_Initialize 002B  
                          _EUSART_ErrorHandler 001F                  _I2C_SlaveAddrInterruptHandler 0009  
                            ??_TMR3_Initialize 002D                       _TMR1_SetInterruptHandler 09EA  
           _I2C_SlaveDefBusColInterruptHandler 0000                          _TMR1_InterruptHandler 001D  
               _I2C_SlaveWrColInterruptHandler 0005                                       __ptext10 0700  
                                     __ptext11 09FE                                       __ptext20 077A  
                                     __ptext12 0A08                                       __ptext21 08C8  
                                     __ptext13 0A12                                       __ptext30 0974  
                                     __ptext22 0A4A                                       __ptext14 0878  
                                     __ptext31 0988                                       __ptext23 05C0  
                                     __ptext15 06BC                                       __ptext32 099C  
                                     __ptext24 07EE                                       __ptext33 09B0  
                                     __ptext25 0A1C                                       __ptext17 073E  
                                     __ptext34 0A40                                       __ptext26 0A24  
                                     __ptext18 08A0                                       __ptext35 084A  
                                     __ptext27 0A3C                                       __ptext19 0A48  
                                     __ptext36 0A34                                       __ptext28 081C  
                                     __ptext37 0A44                                       __ptext29 0A2C  
                                     __ptext38 0000                          _I2C_SlaveIsTxBufEmpty 0974  
                  DATAEE_WriteByte@GIEBitValue 002E                        TMR3_WriteTimer@timerVal 0026  
                      ?_EUSART_SetErrorHandler 002B  EUSART_SetOverrunErrorHandler@interruptHandler 002B  
                                     isa$xinst 0000                                       int$flags 0031  
        __end_of_EUSART_SetFramingErrorHandler 0A12                  _EUSART_SetFramingErrorHandler 0A08  
                            ??_TMR1_WriteTimer 0028           __end_of_TMR3_DefaultInterruptHandler 0A4A  
                 _TMR3_DefaultInterruptHandler 0A48                                     _INTCONbits 0FF2  
                       ??_INTERRUPT_Initialize 002B                           _I2C_SlaveIsRxBufFull 0988  
                                     intlevel2 0000                _I2C_SlaveBusColInterruptHandler 0007  
                      ?_PIN_MANAGER_Initialize 0026                 __end_of_EUSART_SetErrorHandler 0A1C  
                          _I2C_SlaveRdCallBack 081C                                _I2C_SlaveIsAddr 09B0  
                              _I2C_SlaveIsRead 099C                                  _i2cSlaveState 0017  
EUSART_SetFramingErrorHandler@interruptHandler 002B                              ??_TMR3_WriteTimer 0028  
       __end_of_INTERRUPT_InterruptManagerHigh 00C0                 _INTERRUPT_InterruptManagerHigh 0008  
              fp__TMR3_DefaultInterruptHandler 0000                  ?_TMR3_DefaultInterruptHandler 0026  
                         ?_I2C_SlaveRdCallBack 0026                         ?_I2C_SlaveIsTxBufEmpty 0026  
                                  _SSPCON1bits 0FC6                                    _SSPCON2bits 0FC5  
                        ?_I2C_SlaveIsRxBufFull 0026                 __end_of_PIN_MANAGER_Initialize 07EE  
                         _RecTC74_A7_TempValue 0015         __end_of_I2C_SlaveDefRdInterruptHandler 0A34  
               _I2C_SlaveDefRdInterruptHandler 0A2C         __end_of_I2C_SlaveDefWrInterruptHandler 0A24  
               _I2C_SlaveDefWrInterruptHandler 0A1C                          _MSSP_InterruptHandler 000F  
                              _TMR1_Initialize 0916  
